 secp256k1

 Timestamp is 5c272ce2 (Sat Dec 29 16:14:26 2018)

 Preferred load address is 0000000180000000

 Start         Length     Name                   Class
 0001:00000000 00000010H .text$di                CODE
 0001:00000010 0002bda0H .text$mn                CODE
 0001:0002bdb0 00000020H .text$mn$00             CODE
 0001:0002bdd0 000003d0H .text$x                 CODE
 0002:00000000 00000258H .idata$5                DATA
 0002:00000258 00000010H .00cfg                  DATA
 0002:00000268 00000008H .CRT$XCA                DATA
 0002:00000270 00000010H .CRT$XCU                DATA
 0002:00000280 00000008H .CRT$XCZ                DATA
 0002:00000288 00000008H .CRT$XIA                DATA
 0002:00000290 00000018H .CRT$XIC                DATA
 0002:000002a8 00000008H .CRT$XIZ                DATA
 0002:000002b0 00000008H .CRT$XPA                DATA
 0002:000002b8 00000010H .CRT$XPX                DATA
 0002:000002c8 00000008H .CRT$XPXA               DATA
 0002:000002d0 00000008H .CRT$XPZ                DATA
 0002:000002d8 00000008H .CRT$XTA                DATA
 0002:000002e0 00000010H .CRT$XTZ                DATA
 0002:000002e8 00000000H .gfids$y                DATA
 0002:000002f0 000093a8H .rdata                  DATA
 0002:00009698 00000274H .rdata$r                DATA
 0002:0000990c 00000414H .rdata$zzzdbg           DATA
 0002:00009d20 00000008H .rtc$IAA                DATA
 0002:00009d28 00000008H .rtc$IZZ                DATA
 0002:00009d30 00000008H .rtc$TAA                DATA
 0002:00009d38 00000008H .rtc$TZZ                DATA
 0002:00009d40 00001f08H .xdata                  DATA
 0002:0000bc48 0000014cH .xdata$x                DATA
 0002:0000bd94 00000020H .didat$2                DATA
 0002:0000bdb4 00000024H .didat$3                DATA
 0002:0000bdd8 000001a0H .didat$4                DATA
 0002:0000bf78 00000c88H .didat$6                DATA
 0002:0000cc00 000001a0H .didat$7                DATA
 0002:0000cda0 00000058H .edata                  DATA
 0002:0000cdf8 00000014H .idata$2                DATA
 0002:0000ce0c 00000014H .idata$3                DATA
 0002:0000ce20 00000258H .idata$4                DATA
 0002:0000d078 00000574H .idata$6                DATA
 0003:00000000 00000980H .data                   DATA
 0003:00000980 000000c8H .data$r                 DATA
 0003:00000a48 000001a8H .didat$5                DATA
 0003:00000bf0 00001240H .bss                    DATA
 0004:00000000 00001cecH .pdata                  DATA
 0005:00000000 00000060H .rsrc$01                DATA
 0005:00000060 00000180H .rsrc$02                DATA

  Address         Publics by Value              Rva+Base               Lib:Object

 0000:00000000       __hybrid_code_map_count    0000000000000000     <absolute>
 0000:00000000       __hybrid_code_map          0000000000000000     <absolute>
 0000:00000000       __guard_iat_count          0000000000000000     <absolute>
 0000:00000000       __guard_longjmp_table      0000000000000000     <absolute>
 0000:00000000       __volatile_metadata        0000000000000000     <absolute>
 0000:00000000       __guard_iat_table          0000000000000000     <absolute>
 0000:00000000       __guard_longjmp_count      0000000000000000     <absolute>
 0000:00000000       __enclave_config           0000000000000000     <absolute>
 0000:00000000       ___safe_se_handler_count   0000000000000000     <absolute>
 0000:00000000       ___safe_se_handler_table   0000000000000000     <absolute>
 0000:00000000       __guard_fids_count         0000000000000000     <absolute>
 0000:00000000       __guard_fids_table         0000000000000000     <absolute>
 0000:00000000       __hybrid_auxiliary_iat     0000000000000000     <absolute>
 0000:00000000       __dynamic_value_reloc_table 0000000000000000     <absolute>
 0000:00000100       __guard_flags              0000000000000100     <absolute>
 0000:00000000       __ImageBase                0000000180000000     <linker-defined>
 0001:000000e0       ?Export@Nan@@YAXV?$Local@VObject@v8@@@v8@@PEBDP6AXAEBV?$FunctionCallbackInfo@VValue@v8@@@1@@Z@Z 00000001800010e0 f i addon.obj
 0001:00000340       ?Init@@YAXV?$Local@VObject@v8@@@v8@@@Z 0000000180001340 f   addon.obj
 0001:00000680       ?ThrowError@Nan@@YAXPEBD@Z 0000000180001680 f i privatekey.obj
 0001:00000710       ?ThrowRangeError@Nan@@YAXPEBD@Z 0000000180001710 f i privatekey.obj
 0001:000007a0       ?ThrowTypeError@Nan@@YAXPEBD@Z 00000001800017a0 f i privatekey.obj
 0001:00003480       ?privateKeyVerify@@YAXAEBV?$FunctionCallbackInfo@VValue@v8@@@Nan@@@Z 0000000180004480 f   privatekey.obj
 0001:00003590       ?privateKeyExport@@YAXAEBV?$FunctionCallbackInfo@VValue@v8@@@Nan@@@Z 0000000180004590 f   privatekey.obj
 0001:00003800       ?privateKeyImport@@YAXAEBV?$FunctionCallbackInfo@VValue@v8@@@Nan@@@Z 0000000180004800 f   privatekey.obj
 0001:00003a40       ?privateKeyNegate@@YAXAEBV?$FunctionCallbackInfo@VValue@v8@@@Nan@@@Z 0000000180004a40 f   privatekey.obj
 0001:00003b90       ?privateKeyModInverse@@YAXAEBV?$FunctionCallbackInfo@VValue@v8@@@Nan@@@Z 0000000180004b90 f   privatekey.obj
 0001:00003e00       ?privateKeyTweakAdd@@YAXAEBV?$FunctionCallbackInfo@VValue@v8@@@Nan@@@Z 0000000180004e00 f   privatekey.obj
 0001:00004050       ?privateKeyTweakMul@@YAXAEBV?$FunctionCallbackInfo@VValue@v8@@@Nan@@@Z 0000000180005050 f   privatekey.obj
 0001:000042a0       ?publicKeyCreate@@YAXAEBV?$FunctionCallbackInfo@VValue@v8@@@Nan@@@Z 00000001800052a0 f   publickey.obj
 0001:00004550       ?publicKeyConvert@@YAXAEBV?$FunctionCallbackInfo@VValue@v8@@@Nan@@@Z 0000000180005550 f   publickey.obj
 0001:00004860       ?publicKeyVerify@@YAXAEBV?$FunctionCallbackInfo@VValue@v8@@@Nan@@@Z 0000000180005860 f   publickey.obj
 0001:000049a0       ?publicKeyTweakAdd@@YAXAEBV?$FunctionCallbackInfo@VValue@v8@@@Nan@@@Z 00000001800059a0 f   publickey.obj
 0001:00004d10       ?publicKeyTweakMul@@YAXAEBV?$FunctionCallbackInfo@VValue@v8@@@Nan@@@Z 0000000180005d10 f   publickey.obj
 0001:00005080       ?publicKeyCombine@@YAXAEBV?$FunctionCallbackInfo@VValue@v8@@@Nan@@@Z 0000000180006080 f   publickey.obj
 0001:000054c0       ?signatureNormalize@@YAXAEBV?$FunctionCallbackInfo@VValue@v8@@@Nan@@@Z 00000001800064c0 f   signature.obj
 0001:00005660       ?signatureExport@@YAXAEBV?$FunctionCallbackInfo@VValue@v8@@@Nan@@@Z 0000000180006660 f   signature.obj
 0001:000057f0       ?signatureImport@@YAXAEBV?$FunctionCallbackInfo@VValue@v8@@@Nan@@@Z 00000001800067f0 f   signature.obj
 0001:000059f0       ?signatureImportLax@@YAXAEBV?$FunctionCallbackInfo@VValue@v8@@@Nan@@@Z 00000001800069f0 f   signature.obj
 0001:00005ba0       ?nonce_function_custom@@YAHPEAEPEBE11PEAXI@Z 0000000180006ba0 f   ecdsa.obj
 0001:00005de0       ?sign@@YAXAEBV?$FunctionCallbackInfo@VValue@v8@@@Nan@@@Z 0000000180006de0 f   ecdsa.obj
 0001:000062a0       ?verify@@YAXAEBV?$FunctionCallbackInfo@VValue@v8@@@Nan@@@Z 00000001800072a0 f   ecdsa.obj
 0001:00006500       ?recover@@YAXAEBV?$FunctionCallbackInfo@VValue@v8@@@Nan@@@Z 0000000180007500 f   ecdsa.obj
 0001:00006a10       ?ecdh@@YAXAEBV?$FunctionCallbackInfo@VValue@v8@@@Nan@@@Z 0000000180007a10 f   ecdh.obj
 0001:00006c20       ?ecdh_hash_function_unsafe@@YAHPEAEPEBE1PEAX@Z 0000000180007c20 f   ecdh.obj
 0001:00006c50       ?ecdhUnsafe@@YAXAEBV?$FunctionCallbackInfo@VValue@v8@@@Nan@@@Z 0000000180007c50 f   ecdh.obj
 0001:00006fd0       __local_stdio_printf_options 0000000180007fd0 f i secp256k1.obj
 0001:00006fe0       fprintf                    0000000180007fe0 f i secp256k1.obj
 0001:00012850       secp256k1_ec_pubkey_parse  0000000180013850 f   secp256k1.obj
 0001:00012940       secp256k1_ec_pubkey_serialize 0000000180013940 f   secp256k1.obj
 0001:00012af0       secp256k1_ecdsa_signature_parse_compact 0000000180013af0 f   secp256k1.obj
 0001:00012c10       secp256k1_ecdsa_signature_serialize_der 0000000180013c10 f   secp256k1.obj
 0001:00012fe0       secp256k1_ecdsa_verify     0000000180013fe0 f   secp256k1.obj
 0001:00013540       secp256k1_ec_seckey_verify 0000000180014540 f   secp256k1.obj
 0001:000135b0       secp256k1_ec_pubkey_create 00000001800145b0 f   secp256k1.obj
 0001:00013740       secp256k1_ec_pubkey_tweak_add 0000000180014740 f   secp256k1.obj
 0001:00013a10       secp256k1_ec_pubkey_tweak_mul 0000000180014a10 f   secp256k1.obj
 0001:00013cf0       secp256k1_ec_pubkey_combine 0000000180014cf0 f   secp256k1.obj
 0001:000140d0       secp256k1_ecdh             00000001800150d0 f   secp256k1.obj
 0001:00014240       secp256k1_ecdsa_sign_recoverable 0000000180015240 f   secp256k1.obj
 0001:00014780       secp256k1_ecdsa_recover    0000000180015780 f   secp256k1.obj
 0001:00014df0       ecdsa_signature_parse_der_lax 0000000180015df0 f   lax_der_parsing.obj
 0001:00015090       ec_privkey_export_der      0000000180016090 f   lax_der_privatekey_parsing.obj
 0001:000153fc       __imp_load_?Value@External@v8@@QEBAPEAXXZ 00000001800163fc f   node:node.exe
 0001:00015408       __tailMerge_node_exe       0000000180016408     node:node.exe
 0001:00015481       __imp_load_?New@External@v8@@SA?AV?$Local@VExternal@v8@@@2@PEAVIsolate@2@PEAX@Z 0000000180016481 f   node:node.exe
 0001:0001548d       __imp_load_?GetCurrentContext@Isolate@v8@@QEAA?AV?$Local@VContext@v8@@@2@XZ 000000018001648d f   node:node.exe
 0001:00015499       __imp_load_?GetCurrent@Isolate@v8@@SAPEAV12@XZ 0000000180016499 f   node:node.exe
 0001:000154a5       __imp_load_?CreateHandle@HandleScope@v8@@CAPEAPEAVObject@internal@2@PEAVHeapObject@42@PEAV342@@Z 00000001800164a5 f   node:node.exe
 0001:000154b1       __imp_load_??1HandleScope@v8@@QEAA@XZ 00000001800164b1 f   node:node.exe
 0001:000154bd       __imp_load_??0HandleScope@v8@@QEAA@PEAVIsolate@1@@Z 00000001800164bd f   node:node.exe
 0001:000154c9       __imp_load_?GetFunction@FunctionTemplate@v8@@QEAA?AV?$MaybeLocal@VFunction@v8@@@2@V?$Local@VContext@v8@@@2@@Z 00000001800164c9 f   node:node.exe
 0001:000154d5       __imp_load_?New@FunctionTemplate@v8@@SA?AV?$Local@VFunctionTemplate@v8@@@2@PEAVIsolate@2@P6AXAEBV?$FunctionCallbackInfo@VValue@v8@@@2@@ZV?$Local@VValue@v8@@@2@V?$Local@VSignature@v8@@@2@HW4ConstructorBehavior@2@@Z 00000001800164d5 f   node:node.exe
 0001:000154e1       __imp_load_?ToLocalEmpty@V8@v8@@CAXXZ 00000001800164e1 f   node:node.exe
 0001:000154ed       __imp_load_?Escape@EscapableHandleScope@v8@@AEAAPEAPEAVObject@internal@2@PEAPEAV342@@Z 00000001800164ed f   node:node.exe
 0001:000154f9       __imp_load_??0EscapableHandleScope@v8@@QEAA@PEAVIsolate@1@@Z 00000001800164f9 f   node:node.exe
 0001:00015505       __imp_load_?NewFromUtf8@String@v8@@SA?AV?$MaybeLocal@VString@v8@@@2@PEAVIsolate@2@PEBDW4NewStringType@2@H@Z 0000000180016505 f   node:node.exe
 0001:00015511       __imp_load_?SlowGetInternalField@Object@v8@@AEAA?AV?$Local@VValue@v8@@@2@H@Z 0000000180016511 f   node:node.exe
 0001:0001551d       __imp_load_?SetInternalField@Object@v8@@QEAAXHV?$Local@VValue@v8@@@2@@Z 000000018001651d f   node:node.exe
 0001:00015529       __imp_load_?Set@Object@v8@@QEAA?AV?$Maybe@_N@2@V?$Local@VContext@v8@@@2@V?$Local@VValue@v8@@@2@1@Z 0000000180016529 f   node:node.exe
 0001:00015535       __imp_load_?SetInternalFieldCount@ObjectTemplate@v8@@QEAAXH@Z 0000000180016535 f   node:node.exe
 0001:00015541       __imp_load_?NewInstance@ObjectTemplate@v8@@QEAA?AV?$MaybeLocal@VObject@v8@@@2@V?$Local@VContext@v8@@@2@@Z 0000000180016541 f   node:node.exe
 0001:0001554d       __imp_load_?New@ObjectTemplate@v8@@SA?AV?$Local@VObjectTemplate@v8@@@2@PEAVIsolate@2@V?$Local@VFunctionTemplate@v8@@@2@@Z 000000018001654d f   node:node.exe
 0001:00015559       __imp_load_node_module_register 0000000180016559 f   node:node.exe
 0001:00015565       __imp_load_?ThrowException@Isolate@v8@@QEAA?AV?$Local@VValue@v8@@@2@V32@@Z 0000000180016565 f   node:node.exe
 0001:00015571       __imp_load_?Error@Exception@v8@@SA?AV?$Local@VValue@v8@@@2@V?$Local@VString@v8@@@2@@Z 0000000180016571 f   node:node.exe
 0001:0001557d       __imp_load_?TypeError@Exception@v8@@SA?AV?$Local@VValue@v8@@@2@V?$Local@VString@v8@@@2@@Z 000000018001657d f   node:node.exe
 0001:00015589       __imp_load_?RangeError@Exception@v8@@SA?AV?$Local@VValue@v8@@@2@V?$Local@VString@v8@@@2@@Z 0000000180016589 f   node:node.exe
 0001:00015595       __imp_load_?FromJustIsNothing@V8@v8@@CAXXZ 0000000180016595 f   node:node.exe
 0001:000155a1       __imp_load_?BooleanValue@Value@v8@@QEBA?AV?$Maybe@_N@2@V?$Local@VContext@v8@@@2@@Z 00000001800165a1 f   node:node.exe
 0001:000155ad       __imp_load_?IsBooleanObject@Value@v8@@QEBA_NXZ 00000001800165ad f   node:node.exe
 0001:000155b9       __imp_load_?IsBoolean@Value@v8@@QEBA_NXZ 00000001800165b9 f   node:node.exe
 0001:000155c5       __imp_load_?HasInstance@Buffer@node@@YA_NV?$Local@VObject@v8@@@v8@@@Z 00000001800165c5 f   node:node.exe
 0001:000155d1       __imp_load_?Data@Buffer@node@@YAPEADV?$Local@VObject@v8@@@v8@@@Z 00000001800165d1 f   node:node.exe
 0001:000155dd       __imp_load_?Copy@Buffer@node@@YA?AV?$MaybeLocal@VObject@v8@@@v8@@PEAVIsolate@4@PEBD_K@Z 00000001800165dd f   node:node.exe
 0001:000155e9       __imp_load_?Length@Buffer@node@@YA_KV?$Local@VObject@v8@@@v8@@@Z 00000001800165e9 f   node:node.exe
 0001:000155f5       __imp_load_?Length@Array@v8@@QEBAIXZ 00000001800165f5 f   node:node.exe
 0001:00015601       __imp_load_?IsArray@Value@v8@@QEBA_NXZ 0000000180016601 f   node:node.exe
 0001:0001560d       __imp_load_?Get@Object@v8@@QEAA?AV?$Local@VValue@v8@@@2@I@Z 000000018001660d f   node:node.exe
 0001:00015619       __imp_load_?Global@Context@v8@@QEAA?AV?$Local@VObject@v8@@@2@XZ 0000000180016619 f   node:node.exe
 0001:00015625       __imp_load_?NewFromUnsigned@Integer@v8@@SA?AV?$Local@VInteger@v8@@@2@PEAVIsolate@2@I@Z 0000000180016625 f   node:node.exe
 0001:00015631       __imp_load_?IntegerValue@Value@v8@@QEBA?AV?$Maybe@_J@2@V?$Local@VContext@v8@@@2@@Z 0000000180016631 f   node:node.exe
 0001:0001563d       __imp_load_?ToUint32@Value@v8@@QEBA?AV?$MaybeLocal@VUint32@v8@@@2@V?$Local@VContext@v8@@@2@@Z 000000018001663d f   node:node.exe
 0001:00015649       __imp_load_?IsNumberObject@Value@v8@@QEBA_NXZ 0000000180016649 f   node:node.exe
 0001:00015655       __imp_load_?IsNumber@Value@v8@@QEBA_NXZ 0000000180016655 f   node:node.exe
 0001:00015661       __imp_load_?IsObject@Value@v8@@QEBA_NXZ 0000000180016661 f   node:node.exe
 0001:0001566d       __imp_load_?IsFunction@Value@v8@@QEBA_NXZ 000000018001666d f   node:node.exe
 0001:00015679       __imp_load_?New@Number@v8@@SA?AV?$Local@VNumber@v8@@@2@PEAVIsolate@2@N@Z 0000000180016679 f   node:node.exe
 0001:00015685       __imp_load_?New@Object@v8@@SA?AV?$Local@VObject@v8@@@2@PEAVIsolate@2@@Z 0000000180016685 f   node:node.exe
 0001:00015691       __imp_load_?Get@Object@v8@@QEAA?AV?$Local@VValue@v8@@@2@V32@@Z 0000000180016691 f   node:node.exe
 0001:0001569d       __imp_load_?Set@Object@v8@@QEAA_NV?$Local@VValue@v8@@@2@0@Z 000000018001669d f   node:node.exe
 0001:000156a9       __imp_load_?Call@Function@v8@@QEAA?AV?$Local@VValue@v8@@@2@V32@HQEAV32@@Z 00000001800166a9 f   node:node.exe
 0001:000156b5       __imp_load_?HasInstance@Buffer@node@@YA_NV?$Local@VValue@v8@@@v8@@@Z 00000001800166b5 f   node:node.exe
 0001:000156c1       __imp_load_?Data@Buffer@node@@YAPEADV?$Local@VValue@v8@@@v8@@@Z 00000001800166c1 f   node:node.exe
 0001:000156cd       __imp_load_?Length@Buffer@node@@YA_KV?$Local@VValue@v8@@@v8@@@Z 00000001800166cd f   node:node.exe
 0001:000156f0       __security_check_cookie    00000001800166f0 f   LIBCMT:_amdsecgs_.obj
 0001:00015714       ??3@YAXPEAX_K@Z            0000000180016714 f   LIBCMT:delete_scalar_size.obj
 0001:00015714       ??_V@YAXPEAX@Z             0000000180016714 f   LIBCMT:delete_array.obj
 0001:0001571c       ??_U@YAPEAX_K@Z            000000018001671c f   LIBCMT:new_array.obj
 0001:00015a54       _DllMainCRTStartup         0000000180016a54 f   LIBCMT:dll_dllmain.obj
 0001:00015a94       __raise_securityfailure    0000000180016a94 f   LIBCMT:gs_report.obj
 0001:00015ac8       __report_gsfailure         0000000180016ac8 f   LIBCMT:gs_report.obj
 0001:00015b9c       __report_rangecheckfailure 0000000180016b9c f   LIBCMT:gs_report.obj
 0001:00015bb0       __report_securityfailure   0000000180016bb0 f   LIBCMT:gs_report.obj
 0001:00015d30       ??3@YAXPEAX@Z              0000000180016d30 f   LIBCMT:delete_scalar.obj
 0001:00015d38       ??2@YAPEAX_K@Z             0000000180016d38 f   LIBCMT:new_scalar.obj
 0001:00015d74       __security_init_cookie     0000000180016d74 f   LIBCMT:gs_support.obj
 0001:00015e20       _get_startup_argv_mode     0000000180016e20 f   LIBCMT:argv_mode.obj
 0001:00015e20       DllMain                    0000000180016e20 f   LIBCMT:dll_dllmain_stub.obj
 0001:00015e28       ?__scrt_initialize_type_info@@YAXXZ 0000000180016e28 f   LIBCMT:tncleanup.obj
 0001:00015e38       ?__scrt_uninitialize_type_info@@YAXXZ 0000000180016e38 f   LIBCMT:tncleanup.obj
 0001:00015e44       __local_stdio_scanf_options 0000000180016e44 f i LIBCMT:default_local_stdio_options.obj
 0001:00015e4c       __scrt_initialize_default_local_stdio_options 0000000180016e4c f   LIBCMT:default_local_stdio_options.obj
 0001:00015e68       __scrt_acquire_startup_lock 0000000180016e68 f   LIBCMT:utility.obj
 0001:00015ea4       __scrt_dllmain_after_initialize_c 0000000180016ea4 f   LIBCMT:utility.obj
 0001:00015ed8       __scrt_dllmain_before_initialize_c 0000000180016ed8 f   LIBCMT:utility.obj
 0001:00015ef0       __scrt_dllmain_crt_thread_attach 0000000180016ef0 f   LIBCMT:utility.obj
 0001:00015f18       __scrt_dllmain_crt_thread_detach 0000000180016f18 f   LIBCMT:utility.obj
 0001:00015f30       __scrt_dllmain_exception_filter 0000000180016f30 f   LIBCMT:utility.obj
 0001:00015f90       __scrt_dllmain_uninitialize_c 0000000180016f90 f   LIBCMT:utility.obj
 0001:00015fc0       __scrt_dllmain_uninitialize_critical 0000000180016fc0 f   LIBCMT:utility.obj
 0001:00015fd4       __scrt_initialize_crt      0000000180016fd4 f   LIBCMT:utility.obj
 0001:00016020       __scrt_initialize_onexit_tables 0000000180017020 f   LIBCMT:utility.obj
 0001:000160f8       __scrt_is_nonwritable_in_current_image 00000001800170f8 f   LIBCMT:utility.obj
 0001:00016194       __scrt_release_startup_lock 0000000180017194 f   LIBCMT:utility.obj
 0001:000161b8       __scrt_uninitialize_crt    00000001800171b8 f   LIBCMT:utility.obj
 0001:000161e4       __scrt_get_dyn_tls_init_callback 00000001800171e4 f   LIBCMT:dyn_tls_init.obj
 0001:000161ec       __crt_debugger_hook        00000001800171ec f   LIBCMT:utility_desktop.obj
 0001:000161f4       __scrt_fastfail            00000001800171f4 f   LIBCMT:utility_desktop.obj
 0001:00016340       _RTC_Initialize            0000000180017340 f   LIBCMT:_initsect_.obj
 0001:0001637c       _RTC_Terminate             000000018001737c f   LIBCMT:_initsect_.obj
 0001:000163b8       _guard_check_icall_nop     00000001800173b8 f i LIBCMT:guard_support.obj
 0001:000163bc       ??0bad_alloc@std@@QEAA@AEBV01@@Z 00000001800173bc f i LIBCMT:throw_bad_alloc.obj
 0001:000163fc       ??0bad_alloc@std@@QEAA@XZ  00000001800173fc f i LIBCMT:throw_bad_alloc.obj
 0001:0001641c       ??0bad_array_new_length@std@@QEAA@AEBV01@@Z 000000018001741c f i LIBCMT:throw_bad_alloc.obj
 0001:0001645c       ??0bad_array_new_length@std@@QEAA@XZ 000000018001745c f i LIBCMT:throw_bad_alloc.obj
 0001:0001647c       ??0exception@std@@QEAA@AEBV01@@Z 000000018001747c f i LIBCMT:throw_bad_alloc.obj
 0001:000164b4       ??1bad_alloc@std@@UEAA@XZ  00000001800174b4 f i LIBCMT:throw_bad_alloc.obj
 0001:000164b4       ??1bad_array_new_length@std@@UEAA@XZ 00000001800174b4 f i LIBCMT:throw_bad_alloc.obj
 0001:000164b4       ??1bad_exception@std@@UEAA@XZ 00000001800174b4 f i libvcruntime:frame.obj
 0001:000164c8       ??_Gbad_exception@std@@UEAAPEAXI@Z 00000001800174c8 f i libvcruntime:frame.obj
 0001:000164c8       ??_Gbad_alloc@std@@UEAAPEAXI@Z 00000001800174c8 f i LIBCMT:throw_bad_alloc.obj
 0001:000164c8       ??_Ebad_alloc@std@@UEAAPEAXI@Z 00000001800174c8 f i LIBCMT:throw_bad_alloc.obj
 0001:000164c8       ??_Eexception@std@@UEAAPEAXI@Z 00000001800174c8 f i LIBCMT:throw_bad_alloc.obj
 0001:000164c8       ??_Ebad_array_new_length@std@@UEAAPEAXI@Z 00000001800174c8 f i LIBCMT:throw_bad_alloc.obj
 0001:000164c8       ??_Gexception@std@@UEAAPEAXI@Z 00000001800174c8 f i LIBCMT:throw_bad_alloc.obj
 0001:000164c8       ??_Ebad_exception@std@@UEAAPEAXI@Z 00000001800174c8 f i libvcruntime:frame.obj
 0001:000164c8       ??_Gbad_array_new_length@std@@UEAAPEAXI@Z 00000001800174c8 f i LIBCMT:throw_bad_alloc.obj
 0001:0001650c       ?__scrt_throw_std_bad_alloc@@YAXXZ 000000018001750c f   LIBCMT:throw_bad_alloc.obj
 0001:0001652c       ?__scrt_throw_std_bad_array_new_length@@YAXXZ 000000018001752c f   LIBCMT:throw_bad_alloc.obj
 0001:0001654c       ?what@exception@std@@UEBAPEBDXZ 000000018001754c f i LIBCMT:throw_bad_alloc.obj
 0001:00016560       __isa_available_init       0000000180017560 f   LIBCMT:_cpu_disp_.obj
 0001:0001671c       __scrt_is_ucrt_dll_in_use  000000018001771c f   LIBCMT:ucrt_detection.obj
 0001:00016730       ??_Etype_info@@UEAAPEAXI@Z 0000000180017730 f i LIBCMT:std_type_info_static.obj
 0001:00016730       ??_Gtype_info@@UEAAPEAXI@Z 0000000180017730 f i LIBCMT:std_type_info_static.obj
 0001:0001675c       __C_specific_handler       000000018001775c f   libvcruntime:_riscchandler_.obj
 0001:00016968       __std_type_info_compare    0000000180017968 f   libvcruntime:std_type_info.obj
 0001:00016990       __std_type_info_destroy_list 0000000180017990 f   libvcruntime:std_type_info.obj
 0001:000169bc       __vcrt_initialize          00000001800179bc f   libvcruntime:initialization.obj
 0001:000169f0       __vcrt_thread_attach       00000001800179f0 f   libvcruntime:initialization.obj
 0001:00016a04       __vcrt_thread_detach       0000000180017a04 f   libvcruntime:initialization.obj
 0001:00016a18       __vcrt_uninitialize        0000000180017a18 f   libvcruntime:initialization.obj
 0001:00016a38       __vcrt_uninitialize_critical 0000000180017a38 f   libvcruntime:initialization.obj
 0001:00016a60       memset_repmovs             0000000180017a60 f   libvcruntime:memset.obj
 0001:00016a80       memset                     0000000180017a80 f   libvcruntime:memset.obj
 0001:00016c10       __std_exception_copy       0000000180017c10 f   libvcruntime:std_exception.obj
 0001:00016ca0       __std_exception_destroy    0000000180017ca0 f   libvcruntime:std_exception.obj
 0001:00016cc8       _CxxThrowException         0000000180017cc8 f   libvcruntime:throw.obj
 0001:00016da0       _NLG_Notify                0000000180017da0 f   libvcruntime:_notify_.obj
 0001:00016dc0       __NLG_Dispatch2            0000000180017dc0 f   libvcruntime:_notify_.obj
 0001:00016dd0       __NLG_Return2              0000000180017dd0 f   libvcruntime:_notify_.obj
 0001:00016dd4       __except_validate_context_record 0000000180017dd4 f   libvcruntime:jbcxrval.obj
 0001:00016e0c       __DestructExceptionObject  0000000180017e0c f   libvcruntime:ehhelpers.obj
 0001:00016e80       ?_CallMemberFunction0@@YAXQEAX0@Z 0000000180017e80 f i libvcruntime:ehhelpers.obj
 0001:00016e84       _IsExceptionObjectToBeDestroyed 0000000180017e84 f   libvcruntime:ehhelpers.obj
 0001:00016eb4       __AdjustPointer            0000000180017eb4 f   libvcruntime:ehhelpers.obj
 0001:00016ed8       __FrameUnwindFilter        0000000180017ed8 f   libvcruntime:ehhelpers.obj
 0001:00016f24       __vcrt_freefls             0000000180017f24 f   libvcruntime:per_thread_data.obj
 0001:00016f44       __vcrt_freeptd             0000000180017f44 f   libvcruntime:per_thread_data.obj
 0001:00016f94       __vcrt_getptd              0000000180017f94 f   libvcruntime:per_thread_data.obj
 0001:00016fb0       __vcrt_getptd_noexit       0000000180017fb0 f   libvcruntime:per_thread_data.obj
 0001:0001707c       __vcrt_initialize_ptd      000000018001807c f   libvcruntime:per_thread_data.obj
 0001:000170d0       __vcrt_uninitialize_ptd    00000001800180d0 f   libvcruntime:per_thread_data.obj
 0001:000170f4       __vcrt_initialize_locks    00000001800180f4 f   libvcruntime:locks.obj
 0001:0001713c       __vcrt_uninitialize_locks  000000018001813c f   libvcruntime:locks.obj
 0001:0001734c       __vcrt_FlsAlloc            000000018001834c f   libvcruntime:winapi_downlevel.obj
 0001:00017394       __vcrt_FlsFree             0000000180018394 f   libvcruntime:winapi_downlevel.obj
 0001:000173dc       __vcrt_FlsGetValue         00000001800183dc f   libvcruntime:winapi_downlevel.obj
 0001:00017424       __vcrt_FlsSetValue         0000000180018424 f   libvcruntime:winapi_downlevel.obj
 0001:00017478       __vcrt_InitializeCriticalSectionEx 0000000180018478 f   libvcruntime:winapi_downlevel.obj
 0001:000174dc       __vcrt_initialize_winapi_thunks 00000001800184dc f   libvcruntime:winapi_downlevel.obj
 0001:0001750c       __vcrt_uninitialize_winapi_thunks 000000018001850c f   libvcruntime:winapi_downlevel.obj
 0001:0001754c       __vcrt_initialize_pure_virtual_call_handler 000000018001854c f   libvcruntime:purevirt_data.obj
 0001:0001755c       ??$_CallSETranslator@V__FrameHandler3@@@@YAHPEAUEHExceptionRecord@@PEA_KPEAU_CONTEXT@@PEAU_xDISPATCHER_CONTEXT@@PEBU_s_FuncInfo@@K1@Z 000000018001855c f i libvcruntime:risctrnsctrl.obj
 0001:000175b0       ?CatchTryBlock@__FrameHandler3@@SAPEBU_s_TryBlockMapEntry@@PEBU_s_FuncInfo@@H@Z 00000001800185b0 f   libvcruntime:risctrnsctrl.obj
 0001:00017608       ?ExecutionInCatch@__FrameHandler3@@SA_NPEAU_xDISPATCHER_CONTEXT@@PEBU_s_FuncInfo@@@Z 0000000180018608 f   libvcruntime:risctrnsctrl.obj
 0001:00017634       ?FrameUnwindToEmptyState@__FrameHandler3@@SAXPEA_KPEAU_xDISPATCHER_CONTEXT@@PEBU_s_FuncInfo@@@Z 0000000180018634 f   libvcruntime:risctrnsctrl.obj
 0001:00017698       ?GetEstablisherFrame@__FrameHandler3@@SAPEA_KPEA_KPEAU_xDISPATCHER_CONTEXT@@PEBU_s_FuncInfo@@0@Z 0000000180018698 f   libvcruntime:risctrnsctrl.obj
 0001:00017764       ?GetRangeOfTrysToCheck@__FrameHandler3@@SA?AU?$pair@Viterator@TryBlockMap@__FrameHandler3@@V123@@std@@AEAVTryBlockMap@1@HH@Z 0000000180018764 f   libvcruntime:risctrnsctrl.obj
 0001:000178c0       ?UnwindNestedFrames@__FrameHandler3@@SAXPEA_KPEAUEHExceptionRecord@@PEAU_CONTEXT@@0PEAXPEBU_s_FuncInfo@@HHPEBU_s_HandlerType@@PEAU_xDISPATCHER_CONTEXT@@E@Z 00000001800188c0 f   libvcruntime:risctrnsctrl.obj
 0001:000179e4       _CreateFrameInfo           00000001800189e4 f   libvcruntime:risctrnsctrl.obj
 0001:00017a20       _FindAndUnlinkFrame        0000000180018a20 f   libvcruntime:risctrnsctrl.obj
 0001:00017a74       _GetImageBase              0000000180018a74 f   libvcruntime:risctrnsctrl.obj
 0001:00017a88       _GetThrowImageBase         0000000180018a88 f   libvcruntime:risctrnsctrl.obj
 0001:00017a9c       _SetImageBase              0000000180018a9c f   libvcruntime:risctrnsctrl.obj
 0001:00017ab4       _SetThrowImageBase         0000000180018ab4 f   libvcruntime:risctrnsctrl.obj
 0001:00017acc       __CxxFrameHandler3         0000000180018acc f   libvcruntime:risctrnsctrl.obj
 0001:00017b60       memcpy_repmovs             0000000180018b60 f   libvcruntime:memcpy.obj
 0001:00017b80       memmove                    0000000180018b80 f   libvcruntime:memcpy.obj
 0001:00017b80       memcpy                     0000000180018b80 f   libvcruntime:memcpy.obj
 0001:00017fb8       ?GetCurrentState@__FrameHandler3@@SAHPEA_KPEAU_xDISPATCHER_CONTEXT@@PEBU_s_FuncInfo@@@Z 0000000180018fb8 f   libvcruntime:ehstate.obj
 0001:00017fe0       ?GetUnwindTryBlock@__FrameHandler3@@SAHPEA_KPEAU_xDISPATCHER_CONTEXT@@PEBU_s_FuncInfo@@@Z 0000000180018fe0 f   libvcruntime:ehstate.obj
 0001:0001800c       ?SetState@__FrameHandler3@@SAXPEA_KPEBU_s_FuncInfo@@H@Z 000000018001900c f   libvcruntime:ehstate.obj
 0001:00018018       ?SetUnwindTryBlock@__FrameHandler3@@SAXPEA_KPEAU_xDISPATCHER_CONTEXT@@PEBU_s_FuncInfo@@H@Z 0000000180019018 f   libvcruntime:ehstate.obj
 0001:00018054       ?StateFromControlPc@__FrameHandler3@@SAHPEBU_s_FuncInfo@@PEAU_xDISPATCHER_CONTEXT@@@Z 0000000180019054 f   libvcruntime:ehstate.obj
 0001:0001805c       ?StateFromIp@__FrameHandler3@@SAHPEBU_s_FuncInfo@@PEAU_xDISPATCHER_CONTEXT@@_K@Z 000000018001905c f   libvcruntime:ehstate.obj
 0001:00018ae8       ??$TypeMatchHelper@$$CBU_s_HandlerType@@@@YAHPEBU_s_HandlerType@@PEBU_s_CatchableType@@PEBU_s_ThrowInfo@@@Z 0000000180019ae8 f i libvcruntime:frame.obj
 0001:00018c2c       ??$__InternalCxxFrameHandler@V__FrameHandler3@@@@YA?AW4_EXCEPTION_DISPOSITION@@PEAUEHExceptionRecord@@PEA_KPEAU_CONTEXT@@PEAU_xDISPATCHER_CONTEXT@@PEBU_s_FuncInfo@@H1E@Z 0000000180019c2c f i libvcruntime:frame.obj
 0001:00018e74       ??0bad_exception@std@@QEAA@AEBV01@@Z 0000000180019e74 f i libvcruntime:frame.obj
 0001:00018eb4       ??0bad_exception@std@@QEAA@XZ 0000000180019eb4 f i libvcruntime:frame.obj
 0001:00018ed4       ?CxxCallCatchBlock@__FrameHandler3@@SAPEAXPEAU_EXCEPTION_RECORD@@@Z 0000000180019ed4 f   libvcruntime:frame.obj
 0001:00019148       ?FrameUnwindToState@__FrameHandler3@@SAXPEA_KPEAU_xDISPATCHER_CONTEXT@@PEBU_s_FuncInfo@@H@Z 000000018001a148 f   libvcruntime:frame.obj
 0001:000192dc       ?GetHandlerSearchState@__FrameHandler3@@SAHPEA_KPEAU_xDISPATCHER_CONTEXT@@PEBU_s_FuncInfo@@@Z 000000018001a2dc f i libvcruntime:frame.obj
 0001:000194e0       ?_CallMemberFunction1@@YAXQEAX00@Z 000000018001a4e0 f i libvcruntime:frame.obj
 0001:000194ec       ?_CallMemberFunction2@@YAXQEAX00H@Z 000000018001a4ec f i libvcruntime:frame.obj
 0001:00019510       _CallSettingFrame          000000018001a510 f   libvcruntime:handlers.obj
 0001:00019560       _CallSettingFrameEncoded   000000018001a560 f   libvcruntime:handlers.obj
 0001:00019f80       ??$ftprintf@PEAU_iobuf@@PEB_WAEBQEB_WAEBQEB_WAEBI@?$__crt_char_traits@_W@@SAH$$QEAPEAU_iobuf@@$$QEAPEB_WAEBQEB_W2AEBI@Z 000000018001af80 f i libucrt:assert.obj
 0001:00019fa8       _wassert                   000000018001afa8 f   libucrt:assert.obj
 0001:0001a02c       fwprintf                   000000018001b02c f i libucrt:assert.obj
 0001:0001a070       swprintf                   000000018001b070 f i libucrt:assert.obj
 0001:0001a0c4       abort                      000000018001b0c4 f   libucrt:abort.obj
 0001:0001a11c       __acrt_initialize_stdio    000000018001b11c f   libucrt:_file.obj
 0001:0001a23c       __acrt_iob_func            000000018001b23c f   libucrt:_file.obj
 0001:0001a250       __acrt_uninitialize_stdio  000000018001b250 f   libucrt:_file.obj
 0001:0001a2ac       _lock_file                 000000018001b2ac f   libucrt:_file.obj
 0001:0001a2b8       _unlock_file               000000018001b2b8 f   libucrt:_file.obj
 0001:0001a518       ??$ensure_buffer_is_big_enough@D@formatting_buffer@__crt_stdio_output@@QEAA_N_K@Z 000000018001b518 f i libucrt:output.obj
 0001:0001a5c0       ??$ensure_buffer_is_big_enough@_W@formatting_buffer@__crt_stdio_output@@QEAA_N_K@Z 000000018001b5c0 f i libucrt:output.obj
 0001:0001a66c       ??$is_wide_character_specifier@_W@__crt_stdio_output@@YA_N_K_WW4length_modifier@0@@Z 000000018001b66c f i libucrt:output.obj
 0001:0001a6ac       ??$type_case_integer_parse_into_buffer@I@?$output_processor@DV?$stream_output_adapter@D@__crt_stdio_output@@V?$standard_base@DV?$stream_output_adapter@D@__crt_stdio_output@@@2@@__crt_stdio_output@@AEAAXII_N@Z 000000018001b6ac f i libucrt:output.obj
 0001:0001a73c       ??$type_case_integer_parse_into_buffer@I@?$output_processor@_WV?$string_output_adapter@_W@__crt_stdio_output@@V?$standard_base@_WV?$string_output_adapter@_W@__crt_stdio_output@@@2@@__crt_stdio_output@@AEAAXII_N@Z 000000018001b73c f i libucrt:output.obj
 0001:0001a73c       ??$type_case_integer_parse_into_buffer@I@?$output_processor@_WV?$stream_output_adapter@_W@__crt_stdio_output@@V?$standard_base@_WV?$stream_output_adapter@_W@__crt_stdio_output@@@2@@__crt_stdio_output@@AEAAXII_N@Z 000000018001b73c f i libucrt:output.obj
 0001:0001a7dc       ??$type_case_integer_parse_into_buffer@_K@?$output_processor@DV?$stream_output_adapter@D@__crt_stdio_output@@V?$standard_base@DV?$stream_output_adapter@D@__crt_stdio_output@@@2@@__crt_stdio_output@@AEAAX_KI_N@Z 000000018001b7dc f i libucrt:output.obj
 0001:0001a870       ??$type_case_integer_parse_into_buffer@_K@?$output_processor@_WV?$string_output_adapter@_W@__crt_stdio_output@@V?$standard_base@_WV?$string_output_adapter@_W@__crt_stdio_output@@@2@@__crt_stdio_output@@AEAAX_KI_N@Z 000000018001b870 f i libucrt:output.obj
 0001:0001a870       ??$type_case_integer_parse_into_buffer@_K@?$output_processor@_WV?$stream_output_adapter@_W@__crt_stdio_output@@V?$standard_base@_WV?$stream_output_adapter@_W@__crt_stdio_output@@@2@@__crt_stdio_output@@AEAAX_KI_N@Z 000000018001b870 f i libucrt:output.obj
 0001:0001a914       ??$write_multiple_characters@V?$stream_output_adapter@D@__crt_stdio_output@@D@__crt_stdio_output@@YAXAEBV?$stream_output_adapter@D@0@DHQEAH@Z 000000018001b914 f i libucrt:output.obj
 0001:0001a9a0       ??$write_multiple_characters@V?$stream_output_adapter@_W@__crt_stdio_output@@D@__crt_stdio_output@@YAXAEBV?$stream_output_adapter@_W@0@DHQEAH@Z 000000018001b9a0 f i libucrt:output.obj
 0001:0001aa34       ??$write_multiple_characters@V?$string_output_adapter@_W@__crt_stdio_output@@D@__crt_stdio_output@@YAXAEBV?$string_output_adapter@_W@0@DHQEAH@Z 000000018001ba34 f i libucrt:output.obj
 0001:0001aab0       ??0_LocaleUpdate@@QEAA@QEAU__crt_locale_pointers@@@Z 000000018001bab0 f i libucrt:output.obj
 0001:0001ab4c       ??1_LocaleUpdate@@QEAA@XZ  000000018001bb4c f i libucrt:output.obj
 0001:0001adc4       ?crop_zeroes@__crt_stdio_output@@YAXPEADQEAU__crt_locale_pointers@@@Z 000000018001bdc4 f i libucrt:output.obj
 0001:0001ae30       ?force_decimal_point@__crt_stdio_output@@YAXPEADQEAU__crt_locale_pointers@@@Z 000000018001be30 f i libucrt:output.obj
 0001:0001aea0       ?parse_int_from_format_string@?$output_processor@DV?$stream_output_adapter@D@__crt_stdio_output@@V?$standard_base@DV?$stream_output_adapter@D@__crt_stdio_output@@@2@@__crt_stdio_output@@AEAA_NQEAH@Z 000000018001bea0 f i libucrt:output.obj
 0001:0001af44       ?parse_int_from_format_string@?$output_processor@_WV?$string_output_adapter@_W@__crt_stdio_output@@V?$standard_base@_WV?$string_output_adapter@_W@__crt_stdio_output@@@2@@__crt_stdio_output@@AEAA_NQEAH@Z 000000018001bf44 f i libucrt:output.obj
 0001:0001af44       ?parse_int_from_format_string@?$output_processor@_WV?$stream_output_adapter@_W@__crt_stdio_output@@V?$standard_base@_WV?$stream_output_adapter@_W@__crt_stdio_output@@@2@@__crt_stdio_output@@AEAA_NQEAH@Z 000000018001bf44 f i libucrt:output.obj
 0001:0001afe8       ?process@?$output_processor@DV?$stream_output_adapter@D@__crt_stdio_output@@V?$standard_base@DV?$stream_output_adapter@D@__crt_stdio_output@@@2@@__crt_stdio_output@@QEAAHXZ 000000018001bfe8 f i libucrt:output.obj
 0001:0001b1fc       ?process@?$output_processor@_WV?$stream_output_adapter@_W@__crt_stdio_output@@V?$standard_base@_WV?$stream_output_adapter@_W@__crt_stdio_output@@@2@@__crt_stdio_output@@QEAAHXZ 000000018001c1fc f i libucrt:output.obj
 0001:0001b454       ?process@?$output_processor@_WV?$string_output_adapter@_W@__crt_stdio_output@@V?$standard_base@_WV?$string_output_adapter@_W@__crt_stdio_output@@@2@@__crt_stdio_output@@QEAAHXZ 000000018001c454 f i libucrt:output.obj
 0001:0001b6b0       ?state_case_normal@?$output_processor@DV?$stream_output_adapter@D@__crt_stdio_output@@V?$standard_base@DV?$stream_output_adapter@D@__crt_stdio_output@@@2@@__crt_stdio_output@@AEAA_NXZ 000000018001c6b0 f i libucrt:output.obj
 0001:0001b720       ?state_case_normal_tchar@?$output_processor@DV?$stream_output_adapter@D@__crt_stdio_output@@V?$standard_base@DV?$stream_output_adapter@D@__crt_stdio_output@@@2@@__crt_stdio_output@@AEAA_ND@Z 000000018001c720 f i libucrt:output.obj
 0001:0001b7bc       ?state_case_size@?$output_processor@DV?$stream_output_adapter@D@__crt_stdio_output@@V?$standard_base@DV?$stream_output_adapter@D@__crt_stdio_output@@@2@@__crt_stdio_output@@AEAA_NXZ 000000018001c7bc f i libucrt:output.obj
 0001:0001b930       ?state_case_size@?$output_processor@_WV?$stream_output_adapter@_W@__crt_stdio_output@@V?$standard_base@_WV?$stream_output_adapter@_W@__crt_stdio_output@@@2@@__crt_stdio_output@@AEAA_NXZ 000000018001c930 f i libucrt:output.obj
 0001:0001bac8       ?state_case_size@?$output_processor@_WV?$string_output_adapter@_W@__crt_stdio_output@@V?$standard_base@_WV?$string_output_adapter@_W@__crt_stdio_output@@@2@@__crt_stdio_output@@AEAA_NXZ 000000018001cac8 f i libucrt:output.obj
 0001:0001bc60       ?state_case_type@?$output_processor@DV?$stream_output_adapter@D@__crt_stdio_output@@V?$standard_base@DV?$stream_output_adapter@D@__crt_stdio_output@@@2@@__crt_stdio_output@@AEAA_NXZ 000000018001cc60 f i libucrt:output.obj
 0001:0001bef0       ?state_case_type@?$output_processor@_WV?$stream_output_adapter@_W@__crt_stdio_output@@V?$standard_base@_WV?$stream_output_adapter@_W@__crt_stdio_output@@@2@@__crt_stdio_output@@AEAA_NXZ 000000018001cef0 f i libucrt:output.obj
 0001:0001c1dc       ?state_case_type@?$output_processor@_WV?$string_output_adapter@_W@__crt_stdio_output@@V?$standard_base@_WV?$string_output_adapter@_W@__crt_stdio_output@@@2@@__crt_stdio_output@@AEAA_NXZ 000000018001d1dc f i libucrt:output.obj
 0001:0001c4b0       ?type_case_Z@?$output_processor@DV?$stream_output_adapter@D@__crt_stdio_output@@V?$standard_base@DV?$stream_output_adapter@D@__crt_stdio_output@@@2@@__crt_stdio_output@@AEAA_NXZ 000000018001d4b0 f i libucrt:output.obj
 0001:0001c528       ?type_case_Z@?$output_processor@_WV?$string_output_adapter@_W@__crt_stdio_output@@V?$standard_base@_WV?$string_output_adapter@_W@__crt_stdio_output@@@2@@__crt_stdio_output@@AEAA_NXZ 000000018001d528 f i libucrt:output.obj
 0001:0001c528       ?type_case_Z@?$output_processor@_WV?$stream_output_adapter@_W@__crt_stdio_output@@V?$standard_base@_WV?$stream_output_adapter@_W@__crt_stdio_output@@@2@@__crt_stdio_output@@AEAA_NXZ 000000018001d528 f i libucrt:output.obj
 0001:0001c5a4       ?type_case_a@?$output_processor@DV?$stream_output_adapter@D@__crt_stdio_output@@V?$standard_base@DV?$stream_output_adapter@D@__crt_stdio_output@@@2@@__crt_stdio_output@@AEAA_NXZ 000000018001d5a4 f i libucrt:output.obj
 0001:0001c760       ?type_case_a@?$output_processor@_WV?$string_output_adapter@_W@__crt_stdio_output@@V?$standard_base@_WV?$string_output_adapter@_W@__crt_stdio_output@@@2@@__crt_stdio_output@@AEAA_NXZ 000000018001d760 f i libucrt:output.obj
 0001:0001c760       ?type_case_a@?$output_processor@_WV?$stream_output_adapter@_W@__crt_stdio_output@@V?$standard_base@_WV?$stream_output_adapter@_W@__crt_stdio_output@@@2@@__crt_stdio_output@@AEAA_NXZ 000000018001d760 f i libucrt:output.obj
 0001:0001c940       ?type_case_c_tchar@?$output_processor@DV?$stream_output_adapter@D@__crt_stdio_output@@V?$standard_base@DV?$stream_output_adapter@D@__crt_stdio_output@@@2@@__crt_stdio_output@@AEAA_ND@Z 000000018001d940 f i libucrt:output.obj
 0001:0001ca04       ?type_case_c_tchar@?$output_processor@_WV?$stream_output_adapter@_W@__crt_stdio_output@@V?$standard_base@_WV?$stream_output_adapter@_W@__crt_stdio_output@@@2@@__crt_stdio_output@@AEAA_N_W@Z 000000018001da04 f i libucrt:output.obj
 0001:0001ca04       ?type_case_c_tchar@?$output_processor@_WV?$string_output_adapter@_W@__crt_stdio_output@@V?$standard_base@_WV?$string_output_adapter@_W@__crt_stdio_output@@@2@@__crt_stdio_output@@AEAA_N_W@Z 000000018001da04 f i libucrt:output.obj
 0001:0001caac       ?type_case_integer@?$output_processor@DV?$stream_output_adapter@D@__crt_stdio_output@@V?$standard_base@DV?$stream_output_adapter@D@__crt_stdio_output@@@2@@__crt_stdio_output@@AEAA_NI_N@Z 000000018001daac f i libucrt:output.obj
 0001:0001cc74       ?type_case_integer@?$output_processor@_WV?$stream_output_adapter@_W@__crt_stdio_output@@V?$standard_base@_WV?$stream_output_adapter@_W@__crt_stdio_output@@@2@@__crt_stdio_output@@AEAA_NI_N@Z 000000018001dc74 f i libucrt:output.obj
 0001:0001cc74       ?type_case_integer@?$output_processor@_WV?$string_output_adapter@_W@__crt_stdio_output@@V?$standard_base@_WV?$string_output_adapter@_W@__crt_stdio_output@@@2@@__crt_stdio_output@@AEAA_NI_N@Z 000000018001dc74 f i libucrt:output.obj
 0001:0001ce40       ?type_case_n@?$output_processor@_WV?$stream_output_adapter@_W@__crt_stdio_output@@V?$standard_base@_WV?$stream_output_adapter@_W@__crt_stdio_output@@@2@@__crt_stdio_output@@AEAA_NXZ 000000018001de40 f i libucrt:output.obj
 0001:0001ce40       ?type_case_n@?$output_processor@DV?$stream_output_adapter@D@__crt_stdio_output@@V?$standard_base@DV?$stream_output_adapter@D@__crt_stdio_output@@@2@@__crt_stdio_output@@AEAA_NXZ 000000018001de40 f i libucrt:output.obj
 0001:0001ce40       ?type_case_n@?$output_processor@_WV?$string_output_adapter@_W@__crt_stdio_output@@V?$standard_base@_WV?$string_output_adapter@_W@__crt_stdio_output@@@2@@__crt_stdio_output@@AEAA_NXZ 000000018001de40 f i libucrt:output.obj
 0001:0001cf1c       ?type_case_s@?$output_processor@DV?$stream_output_adapter@D@__crt_stdio_output@@V?$standard_base@DV?$stream_output_adapter@D@__crt_stdio_output@@@2@@__crt_stdio_output@@AEAA_NXZ 000000018001df1c f i libucrt:output.obj
 0001:0001cfb4       ?type_case_s@?$output_processor@_WV?$stream_output_adapter@_W@__crt_stdio_output@@V?$standard_base@_WV?$stream_output_adapter@_W@__crt_stdio_output@@@2@@__crt_stdio_output@@AEAA_NXZ 000000018001dfb4 f i libucrt:output.obj
 0001:0001cfb4       ?type_case_s@?$output_processor@_WV?$string_output_adapter@_W@__crt_stdio_output@@V?$standard_base@_WV?$string_output_adapter@_W@__crt_stdio_output@@@2@@__crt_stdio_output@@AEAA_NXZ 000000018001dfb4 f i libucrt:output.obj
 0001:0001d078       ?validate_stream_is_ansi_if_required@?$__acrt_stdio_char_traits@D@@SA_NQEAU_iobuf@@@Z 000000018001e078 f i libucrt:output.obj
 0001:0001d10c       ?write_stored_string_tchar@?$output_processor@DV?$stream_output_adapter@D@__crt_stdio_output@@V?$standard_base@DV?$stream_output_adapter@D@__crt_stdio_output@@@2@@__crt_stdio_output@@AEAA_ND@Z 000000018001e10c f i libucrt:output.obj
 0001:0001d230       ?write_stored_string_tchar@?$output_processor@_WV?$stream_output_adapter@_W@__crt_stdio_output@@V?$standard_base@_WV?$stream_output_adapter@_W@__crt_stdio_output@@@2@@__crt_stdio_output@@AEAA_N_W@Z 000000018001e230 f i libucrt:output.obj
 0001:0001d338       ?write_stored_string_tchar@?$output_processor@_WV?$string_output_adapter@_W@__crt_stdio_output@@V?$standard_base@_WV?$string_output_adapter@_W@__crt_stdio_output@@@2@@__crt_stdio_output@@AEAA_N_W@Z 000000018001e338 f i libucrt:output.obj
 0001:0001d424       ?write_string@?$string_output_adapter@_W@__crt_stdio_output@@QEBAXQEB_WHQEAHAEAV__crt_deferred_errno_cache@@@Z 000000018001e424 f i libucrt:output.obj
 0001:0001d4cc       ?write_string_impl@?$output_adapter_common@DV?$stream_output_adapter@D@__crt_stdio_output@@@__crt_stdio_output@@IEBAXQEBDHQEAHAEAV__crt_deferred_errno_cache@@@Z 000000018001e4cc f i libucrt:output.obj
 0001:0001d5c4       ?write_string_impl@?$output_adapter_common@_WV?$stream_output_adapter@_W@__crt_stdio_output@@@__crt_stdio_output@@IEBAXQEB_WHQEAHAEAV__crt_deferred_errno_cache@@@Z 000000018001e5c4 f i libucrt:output.obj
 0001:0001d6c8       __stdio_common_vfprintf    000000018001e6c8 f   libucrt:output.obj
 0001:0001d754       __stdio_common_vfwprintf   000000018001e754 f   libucrt:output.obj
 0001:0001d7e0       __stdio_common_vswprintf   000000018001e7e0 f   libucrt:output.obj
 0001:0001d7e8       free                       000000018001e7e8 f   libucrt:free.obj
 0001:0001d7fc       malloc                     000000018001e7fc f   libucrt:malloc.obj
 0001:0001d804       __ascii_stricmp            000000018001e804 f   libucrt:stricmp.obj
 0001:0001d844       _stricmp                   000000018001e844 f   libucrt:stricmp.obj
 0001:0001d88c       _stricmp_l                 000000018001e88c f   libucrt:stricmp.obj
 0001:0001d940       _initterm                  000000018001e940 f   libucrt:initterm.obj
 0001:0001d9a4       _initterm_e                000000018001e9a4 f   libucrt:initterm.obj
 0001:0001d9e4       __acrt_initialize_new_handler 000000018001e9e4 f   libucrt:new_handler.obj
 0001:0001d9ec       _callnewh                  000000018001e9ec f   libucrt:new_handler.obj
 0001:0001da1c       _query_new_handler         000000018001ea1c f   libucrt:new_handler.obj
 0001:0001da50       _seh_filter_dll            000000018001ea50 f   libucrt:exception_filter.obj
 0001:0001da64       _seh_filter_exe            000000018001ea64 f   libucrt:exception_filter.obj
 0001:0001de5c       __acrt_initialize_thread_local_exit_callback 000000018001ee5c f   libucrt:exit.obj
 0001:0001de64       _cexit                     000000018001ee64 f   libucrt:exit.obj
 0001:0001de74       _exit                      000000018001ee74 f   libucrt:exit.obj
 0001:0001de80       _is_c_termination_complete 000000018001ee80 f   libucrt:exit.obj
 0001:0001e04c       __acrt_allocate_buffer_for_argv 000000018001f04c f   libucrt:argv_parsing.obj
 0001:0001e0ac       _configure_narrow_argv     000000018001f0ac f   libucrt:argv_parsing.obj
 0001:0001e424       __dcrt_uninitialize_environments_nolock 000000018001f424 f   libucrt:environment_initialization.obj
 0001:0001e45c       _initialize_narrow_environment 000000018001f45c f   libucrt:environment_initialization.obj
 0001:0001e5ec       _execute_onexit_table      000000018001f5ec f   libucrt:onexit.obj
 0001:0001e628       _initialize_onexit_table   000000018001f628 f   libucrt:onexit.obj
 0001:0001e6a0       __acrt_uninitialize_command_line 000000018001f6a0 f   libucrt:argv_data.obj
 0001:0001e7ac       __acrt_initialize          000000018001f7ac f   libucrt:initialization.obj
 0001:0001e7c0       __acrt_thread_attach       000000018001f7c0 f   libucrt:initialization.obj
 0001:0001e7d4       __acrt_thread_detach       000000018001f7d4 f   libucrt:initialization.obj
 0001:0001e7e4       __acrt_uninitialize        000000018001f7e4 f   libucrt:initialization.obj
 0001:0001e81c       __acrt_uninitialize_critical 000000018001f81c f   libucrt:initialization.obj
 0001:0001e82c       terminate                  000000018001f82c f   libucrt:terminate.obj
 0001:0001e84c       strcpy_s                   000000018001f84c f   libucrt:strcpy_s.obj
 0001:0001e8bc       ??$parse_integer@KV?$c_string_character_source@D@__crt_strtox@@@__crt_strtox@@YAKQEAU__crt_locale_pointers@@V?$c_string_character_source@D@0@H_N@Z 000000018001f8bc f i libucrt:atox.obj
 0001:0001ebf8       ??$parse_integer@KV?$c_string_character_source@_W@__crt_strtox@@@__crt_strtox@@YAKQEAU__crt_locale_pointers@@V?$c_string_character_source@_W@0@H_N@Z 000000018001fbf8 f i libucrt:atox.obj
 0001:0001f2c0       strncmp                    00000001800202c0 f   libucrt:strncmp.obj
 0001:0001f340       calloc                     0000000180020340 f   libucrt:calloc.obj
 0001:0001f348       wcsncmp                    0000000180020348 f   libucrt:wcsncmp.obj
 0001:0001f374       __acrt_call_reportfault    0000000180020374 f   libucrt:invalid_parameter.obj
 0001:0001f4d0       __acrt_initialize_invalid_parameter_handler 00000001800204d0 f   libucrt:invalid_parameter.obj
 0001:0001f4d8       _invalid_parameter         00000001800204d8 f   libucrt:invalid_parameter.obj
 0001:0001f588       _invalid_parameter_noinfo  0000000180020588 f   libucrt:invalid_parameter.obj
 0001:0001f5a8       _invoke_watson             00000001800205a8 f   libucrt:invalid_parameter.obj
 0001:0001f5f0       _query_app_type            00000001800205f0 f   libucrt:report_runtime_error.obj
 0001:0001f5f8       __acrt_errno_from_os_error 00000001800205f8 f   libucrt:errno.obj
 0001:0001f640       __acrt_errno_map_os_error  0000000180020640 f   libucrt:errno.obj
 0001:0001f690       __doserrno                 0000000180020690 f   libucrt:errno.obj
 0001:0001f6b0       _errno                     00000001800206b0 f   libucrt:errno.obj
 0001:0001f800       _itow_s                    0000000180020800 f   libucrt:xtoa.obj
 0001:0001f820       _set_error_mode            0000000180020820 f   libucrt:set_error_mode.obj
 0001:0001f860       wcscat_s                   0000000180020860 f   libucrt:wcscat_s.obj
 0001:0001f8ec       wcscpy_s                   00000001800208ec f   libucrt:wcscpy_s.obj
 0001:0001f964       wcsncat_s                  0000000180020964 f   libucrt:wcsncat_s.obj
 0001:0001fa78       __acrt_GetModuleFileNameA  0000000180020a78 f   libucrt:getmodulefilenamea.obj
 0001:0001faf4       __acrt_show_wide_message_box 0000000180020af4 f   libucrt:crtmbox.obj
 0001:0001fdb4       __acrt_stdio_flush_nolock  0000000180020db4 f   libucrt:fflush.obj
 0001:0001fe30       _fflush_nolock             0000000180020e30 f   libucrt:fflush.obj
 0001:0001fe7c       _flushall                  0000000180020e7c f   libucrt:fflush.obj
 0001:0001fe84       fflush                     0000000180020e84 f   libucrt:fflush.obj
 0001:0002001c       setvbuf                    000000018002101c f   libucrt:setvbuf.obj
 0001:00020100       __acrt_get_sigabrt_handler 0000000180021100 f   libucrt:signal.obj
 0001:00020130       __acrt_initialize_signal_handlers 0000000180021130 f   libucrt:signal.obj
 0001:00020150       raise                      0000000180021150 f   libucrt:signal.obj
 0001:000203d0       _calloc_base               00000001800213d0 f   libucrt:calloc_base.obj
 0001:00020448       _free_base                 0000000180021448 f   libucrt:free_base.obj
 0001:00020660       __acrt_AppPolicyGetProcessTerminationMethodInternal 0000000180021660 f   libucrt:winapi_thunks.obj
 0001:000206b0       __acrt_AppPolicyGetShowDeveloperDiagnosticInternal 00000001800216b0 f   libucrt:winapi_thunks.obj
 0001:00020700       __acrt_AppPolicyGetWindowingModelInternal 0000000180021700 f   libucrt:winapi_thunks.obj
 0001:00020750       __acrt_FlsAlloc            0000000180021750 f   libucrt:winapi_thunks.obj
 0001:00020798       __acrt_FlsFree             0000000180021798 f   libucrt:winapi_thunks.obj
 0001:000207e0       __acrt_FlsGetValue         00000001800217e0 f   libucrt:winapi_thunks.obj
 0001:00020828       __acrt_FlsSetValue         0000000180021828 f   libucrt:winapi_thunks.obj
 0001:0002087c       __acrt_InitializeCriticalSectionEx 000000018002187c f   libucrt:winapi_thunks.obj
 0001:000208e0       __acrt_LCMapStringEx       00000001800218e0 f   libucrt:winapi_thunks.obj
 0001:000209bc       __acrt_LocaleNameToLCID    00000001800219bc f   libucrt:winapi_thunks.obj
 0001:00020a0c       __acrt_MessageBoxW         0000000180021a0c f   libucrt:winapi_thunks.obj
 0001:00020a80       __acrt_can_show_message_box 0000000180021a80 f   libucrt:winapi_thunks.obj
 0001:00020af0       __acrt_get_parent_window   0000000180021af0 f   libucrt:winapi_thunks.obj
 0001:00020b6c       __acrt_initialize_winapi_thunks 0000000180021b6c f   libucrt:winapi_thunks.obj
 0001:00020bb4       __acrt_is_interactive      0000000180021bb4 f   libucrt:winapi_thunks.obj
 0001:00020c7c       __acrt_uninitialize_winapi_thunks 0000000180021c7c f   libucrt:winapi_thunks.obj
 0001:00020cc0       _fcloseall                 0000000180021cc0 f   libucrt:closeall.obj
 0001:00020d74       __acrt_stdio_free_buffer_nolock 0000000180021d74 f   libucrt:_freebuf.obj
 0001:00020f9c       __acrt_initialize_lowio    0000000180021f9c f   libucrt:ioinit.obj
 0001:00020fd8       __acrt_uninitialize_lowio  0000000180021fd8 f   libucrt:ioinit.obj
 0001:00021018       isdigit                    0000000180022018 f i libucrt:_ctype.obj
 0001:000210e0       _tolower_l                 00000001800220e0 f   libucrt:tolower_toupper.obj
 0001:00021220       tolower                    0000000180022220 f   libucrt:tolower_toupper.obj
 0001:0002124c       _malloc_base               000000018002224c f   libucrt:malloc_base.obj
 0001:000212ac       strtol                     00000001800222ac f   libucrt:strtox.obj
 0001:000212d8       wcstol                     00000001800222d8 f   libucrt:strtox.obj
 0001:00021304       _mbtowc_l                  0000000180022304 f   libucrt:mbtowc.obj
 0001:00021480       mbtowc                     0000000180022480 f   libucrt:mbtowc.obj
 0001:00021488       _wctomb_s_l                0000000180022488 f   libucrt:wctomb.obj
 0001:0002160c       wctomb_s                   000000018002260c f   libucrt:wctomb.obj
 0001:00021620       strnlen                    0000000180022620 f   libucrt:strnlen.obj
 0001:00021770       wcsnlen                    0000000180022770 f   libucrt:strnlen.obj
 0001:00021cc0       __acrt_freeptd             0000000180022cc0 f   libucrt:per_thread_data.obj
 0001:00021d04       __acrt_getptd              0000000180022d04 f   libucrt:per_thread_data.obj
 0001:00021dc8       __acrt_getptd_head         0000000180022dc8 f   libucrt:per_thread_data.obj
 0001:00021e70       __acrt_getptd_noexit       0000000180022e70 f   libucrt:per_thread_data.obj
 0001:00021f28       __acrt_initialize_ptd      0000000180022f28 f   libucrt:per_thread_data.obj
 0001:00021f64       __acrt_uninitialize_ptd    0000000180022f64 f   libucrt:per_thread_data.obj
 0001:00021f88       __acrt_update_locale_info  0000000180022f88 f   libucrt:locale_update.obj
 0001:00021fbc       __acrt_update_multibyte_info 0000000180022fbc f   libucrt:locale_update.obj
 0001:000229c0       __acrt_fp_format           00000001800239c0 f   libucrt:cvt.obj
 0001:00022c48       _fputwc_nolock             0000000180023c48 f   libucrt:fputwc.obj
 0001:00022dc0       _fileno                    0000000180023dc0 f   libucrt:fileno.obj
 0001:00022de8       _fputc_nolock              0000000180023de8 f   libucrt:fputc.obj
 0001:00022e00       _get_printf_count_output   0000000180023e00 f   libucrt:printf_count_output.obj
 0001:00022e18       __acrt_stdio_begin_temporary_buffering_nolock 0000000180023e18 f   libucrt:_sftbuf.obj
 0001:00022ee8       __acrt_stdio_end_temporary_buffering_nolock 0000000180023ee8 f   libucrt:_sftbuf.obj
 0001:00022f94       __acrt_set_locale_changed  0000000180023f94 f   libucrt:wsetlocale.obj
 0001:00022fa0       __acrt_uninitialize_locale 0000000180023fa0 f   libucrt:wsetlocale.obj
 0001:00022fd0       __acrt_initialize_locks    0000000180023fd0 f   libucrt:locks.obj
 0001:00023018       __acrt_lock                0000000180024018 f   libucrt:locks.obj
 0001:00023034       __acrt_uninitialize_locks  0000000180024034 f   libucrt:locks.obj
 0001:0002306c       __acrt_unlock              000000018002406c f   libucrt:locks.obj
 0001:00023088       __acrt_get_developer_information_policy 0000000180024088 f   libucrt:win_policies.obj
 0001:000230dc       __acrt_get_process_end_policy 00000001800240dc f   libucrt:win_policies.obj
 0001:00023118       __acrt_get_windowing_model_policy 0000000180024118 f   libucrt:win_policies.obj
 0001:000236ec       __acrt_expand_narrow_argv_wildcards 00000001800246ec f   libucrt:argv_wildcards.obj
 0001:00023e20       __acrt_initialize_multibyte 0000000180024e20 f   libucrt:mbctype.obj
 0001:00023e80       __acrt_update_thread_multibyte_data 0000000180024e80 f   libucrt:mbctype.obj
 0001:00023e9c       _setmbcp_nolock            0000000180024e9c f   libucrt:mbctype.obj
 0001:000241cc       _ismbblead                 00000001800251cc f   libucrt:ismbbyte.obj
 0001:000241e0       __acrt_initialize_command_line 00000001800251e0 f   libucrt:argv_data.obj
 0001:00024208       __acrt_MultiByteToWideChar 0000000180025208 f   libucrt:multibytetowidechar.obj
 0001:00024264       __acrt_WideCharToMultiByte 0000000180025264 f   libucrt:widechartomultibyte.obj
 0001:000242fc       __dcrt_get_narrow_environment_from_os 00000001800252fc f   libucrt:get_environment_from_os.obj
 0001:00024400       _recalloc                  0000000180025400 f   libucrt:recalloc.obj
 0001:00024408       _recalloc_base             0000000180025408 f   libucrt:recalloc.obj
 0001:000244a0       __acrt_initialize_heap     00000001800254a0 f   libucrt:heap_handle.obj
 0001:000244bc       __acrt_uninitialize_heap   00000001800254bc f   libucrt:heap_handle.obj
 0001:000244c8       __acrt_execute_initializers 00000001800254c8 f   libucrt:shared_initialization.obj
 0001:00024548       __acrt_execute_uninitializers 0000000180025548 f   libucrt:shared_initialization.obj
 0001:00024584       __acrt_has_user_matherr    0000000180025584 f   libucrt:matherr.obj
 0001:000245a4       __acrt_initialize_user_matherr 00000001800255a4 f   libucrt:matherr.obj
 0001:000245ac       __acrt_invoke_user_matherr 00000001800255ac f   libucrt:matherr.obj
 0001:000245dc       __pctype_func              00000001800255dc f   libucrt:ctype.obj
 0001:0002460c       iswctype                   000000018002560c f   libucrt:iswctype.obj
 0001:0002467c       _isctype_l                 000000018002567c f   libucrt:isctype.obj
 0001:00024994       _mbstowcs_l                0000000180025994 f   libucrt:mbstowcs.obj
 0001:0002499c       mbstowcs                   000000018002599c f   libucrt:mbstowcs.obj
 0001:00024a44       _commit                    0000000180025a44 f   libucrt:commit.obj
 0001:00025080       _write                     0000000180026080 f   libucrt:write.obj
 0001:0002516c       _write_nolock              000000018002616c f   libucrt:write.obj
 0001:0002544c       _query_new_mode            000000018002644c f   libucrt:new_mode.obj
 0001:0002553c       __acrt_DownlevelLocaleNameToLCID 000000018002653c f   libucrt:lcidtoname_downlevel.obj
 0001:00025570       _fclose_nolock             0000000180026570 f   libucrt:fclose.obj
 0001:000255f4       fclose                     00000001800265f4 f   libucrt:fclose.obj
 0001:00025658       __acrt_lowio_create_handle_array 0000000180026658 f   libucrt:osfinfo.obj
 0001:000256f0       __acrt_lowio_destroy_handle_array 00000001800266f0 f   libucrt:osfinfo.obj
 0001:00025740       __acrt_lowio_ensure_fh_exists 0000000180026740 f   libucrt:osfinfo.obj
 0001:000257e8       __acrt_lowio_lock_fh       00000001800267e8 f   libucrt:osfinfo.obj
 0001:0002580c       __acrt_lowio_unlock_fh     000000018002680c f   libucrt:osfinfo.obj
 0001:00025830       _free_osfhnd               0000000180026830 f   libucrt:osfinfo.obj
 0001:000258ec       _get_osfhandle             00000001800268ec f   libucrt:osfinfo.obj
 0001:00025964       _isleadbyte_l              0000000180026964 f i libucrt:_wctype.obj
 0001:00025cbc       __acrt_LCMapStringA        0000000180026cbc f   libucrt:lcmapstringa.obj
 0001:00025d54       ?__mbrtowc_utf8@__crt_mbstring@@YA_KPEA_WPEBD_KPEAU_Mbstatet@@@Z 0000000180026d54 f   libucrt:mbrtowc.obj
 0001:00025d90       ?__mbsrtowcs_utf8@__crt_mbstring@@YA_KPEA_WPEAPEBD_KPEAU_Mbstatet@@@Z 0000000180026d90 f   libucrt:mbrtowc.obj
 0001:00025f08       __acrt_add_locale_ref      0000000180026f08 f   libucrt:locale_refcounting.obj
 0001:00025f94       __acrt_free_locale         0000000180026f94 f   libucrt:locale_refcounting.obj
 0001:0002610c       __acrt_locale_add_lc_time_reference 000000018002710c f   libucrt:locale_refcounting.obj
 0001:00026134       __acrt_locale_free_lc_time_if_unreferenced 0000000180027134 f   libucrt:locale_refcounting.obj
 0001:0002616c       __acrt_locale_release_lc_time_reference 000000018002716c f   libucrt:locale_refcounting.obj
 0001:00026194       __acrt_release_locale_ref  0000000180027194 f   libucrt:locale_refcounting.obj
 0001:0002623c       __acrt_update_thread_locale_data 000000018002723c f   libucrt:locale_refcounting.obj
 0001:000262ac       _updatetlocinfoEx_nolock   00000001800272ac f   libucrt:locale_refcounting.obj
 0001:00026314       __acrt_fp_strflt_to_string 0000000180027314 f   libucrt:_fptostr.obj
 0001:00026400       ?divide@__crt_strtox@@YA_KAEAUbig_integer@1@AEBU21@@Z 0000000180027400 f i libucrt:cfout.obj
 0001:00026890       __acrt_fltout              0000000180027890 f   libucrt:cfout.obj
 0001:00027db4       __acrt_stdio_flush_and_write_narrow_nolock 0000000180028db4 f   libucrt:_flsbuf.obj
 0001:00027e9c       __acrt_stdio_flush_and_write_wide_nolock 0000000180028e9c f   libucrt:_flsbuf.obj
 0001:00027f88       _isatty                    0000000180028f88 f   libucrt:isatty.obj
 0001:00027fe8       __acrt_locale_free_monetary 0000000180028fe8 f   libucrt:initmon.obj
 0001:000280f4       __acrt_locale_free_numeric 00000001800290f4 f   libucrt:initnum.obj
 0001:000281b4       __acrt_locale_free_time    00000001800291b4 f   libucrt:inittime.obj
 0001:000282bc       __acrt_GetStringTypeA      00000001800292bc f   libucrt:getstringtypea.obj
 0001:00028450       qsort                      0000000180029450 f   libucrt:qsort.obj
 0001:00028800       strncpy_s                  0000000180029800 f   libucrt:strncpy_s.obj
 0001:00028990       strpbrk                    0000000180029990 f   libucrt:strpbrk.obj
 0001:00028d70       ??$__acrt_convert_wcs_mbs@D_W$$A6A_KPEA_WPEBD_KPEAU__crt_locale_pointers@@@ZU__crt_win32_buffer_internal_dynamic_resizing@@@@YAHQEBDAEAV?$__crt_win32_buffer@_WU__crt_win32_buffer_internal_dynamic_resizing@@@@A6A_KPEA_WPEBD_KPEAU__crt_locale_pointers@@@Z5@Z 0000000180029d70 f i libucrt:findfirstfileexa.obj
 0001:00028e78       __acrt_FindFirstFileExA    0000000180029e78 f   libucrt:findfirstfileexa.obj
 0001:00028f1c       ??$__acrt_convert_wcs_mbs@_WD$$A6A_KPEADPEB_W_KPEAU__crt_locale_pointers@@@ZU__crt_win32_buffer_no_resizing@@@@YAHQEB_WAEAV?$__crt_win32_buffer@DU__crt_win32_buffer_no_resizing@@@@A6A_KPEADPEB_W_KPEAU__crt_locale_pointers@@@Z5@Z 0000000180029f1c f i libucrt:findnextfilea.obj
 0001:00028fe8       __acrt_FindNextFileA       0000000180029fe8 f   libucrt:findnextfilea.obj
 0001:0002911c       _mbsdec                    000000018002a11c f   libucrt:mbsdec.obj
 0001:00029124       _mbsdec_l                  000000018002a124 f   libucrt:mbsdec.obj
 0001:000291d0       _msize                     000000018002a1d0 f   libucrt:msize.obj
 0001:000291d8       _msize_base                000000018002a1d8 f   libucrt:msize.obj
 0001:00029214       _realloc_base              000000018002a214 f   libucrt:realloc_base.obj
 0001:00029290       __acrt_GetStringTypeW      000000018002a290 f   libucrt:getstringtypew.obj
 0001:00029424       _lseeki64                  000000018002a424 f   libucrt:lseek.obj
 0001:0002942c       _lseeki64_nolock           000000018002a42c f   libucrt:lseek.obj
 0001:00029434       _putwch_nolock             000000018002a434 f   libucrt:putwch.obj
 0001:000294e4       _close                     000000018002a4e4 f   libucrt:close.obj
 0001:00029588       _close_nolock              000000018002a588 f   libucrt:close.obj
 0001:00029644       ?__acrt_stdio_free_stream@@YAXV__crt_stdio_stream@@@Z 000000018002a644 f   libucrt:stream.obj
 0001:00029660       __strncnt                  000000018002a660 f   libucrt:strncnt.obj
 0001:00029678       ?__mbrtoc32_utf8@__crt_mbstring@@YA_KPEA_UPEBD_KPEAU_Mbstatet@@@Z 000000018002a678 f   libucrt:mbrtoc32.obj
 0001:00029854       fegetenv                   000000018002a854 f   libucrt:fegetenv.obj
 0001:00029874       fesetenv                   000000018002a874 f   libucrt:fesetenv.obj
 0001:000298c4       feholdexcept               000000018002a8c4 f   libucrt:feholdexcept.obj
 0001:00029914       ceil                       000000018002a914 f   libucrt:ceil.obj
 0001:000299e0       log10                      000000018002a9e0 f   libucrt:log10.obj
 0001:00029f8c       __acrt_stdio_allocate_buffer_nolock 000000018002af8c f   libucrt:_getbuf.obj
 0001:0002a35c       _wcstombs_l                000000018002b35c f   libucrt:wcstombs.obj
 0001:0002a364       __dcrt_lowio_ensure_console_output_initialized 000000018002b364 f   libucrt:initcon.obj
 0001:0002a3b8       __dcrt_terminate_console_output 000000018002b3b8 f   libucrt:initcon.obj
 0001:0002a3d4       __dcrt_write_console       000000018002b3d4 f   libucrt:initcon.obj
 0001:0002a494       __acrt_fenv_get_control    000000018002b494 f   libucrt:_fenvutils.obj
 0001:0002a594       __acrt_fenv_get_status     000000018002b594 f   libucrt:_fenvutils.obj
 0001:0002a5ec       __acrt_fenv_set_control    000000018002b5ec f   libucrt:_fenvutils.obj
 0001:0002a734       __acrt_fenv_set_status     000000018002b734 f   libucrt:_fenvutils.obj
 0001:0002a7b8       _clearfp                   000000018002b7b8 f   libucrt:ieee.obj
 0001:0002a94c       _handle_error              000000018002b94c f   libucrt:libm_error.obj
 0001:0002aa74       _handle_nan                000000018002ba74 f   libucrt:libm_error.obj
 0001:0002aa90       __acrt_initialize_fma3     000000018002ba90 f   libucrt:fma3_available.obj
 0001:0002ab00       _log10_special             000000018002bb00 f   libucrt:log_special.obj
 0001:0002abb8       ?__wcsrtombs_utf8@__crt_mbstring@@YA_KPEADPEAPEB_W_KPEAU_Mbstatet@@@Z 000000018002bbb8 f   libucrt:wcrtomb.obj
 0001:0002acf0       _get_fpsr                  000000018002bcf0 f   libucrt:fpsr.obj
 0001:0002ad00       _set_fpsr                  000000018002bd00 f   libucrt:fpsr.obj
 0001:0002ad0a       _fclrf                     000000018002bd0a f   libucrt:fpsr.obj
 0001:0002ad1e       _frnd                      000000018002bd1e f   libucrt:fpsr.obj
 0001:0002ad40       _raise_exc                 000000018002bd40 f   libucrt:fpexcept.obj
 0001:0002ad68       _raise_exc_ex              000000018002bd68 f   libucrt:fpexcept.obj
 0001:0002b078       _set_errno_from_matherr    000000018002c078 f   libucrt:fpexcept.obj
 0001:0002b0a8       _clrfp                     000000018002c0a8 f   libucrt:fpctrl.obj
 0001:0002b0c8       _ctrlfp                    000000018002c0c8 f   libucrt:fpctrl.obj
 0001:0002b144       _set_statfp                000000018002c144 f   libucrt:fpctrl.obj
 0001:0002b164       _statfp                    000000018002c164 f   libucrt:fpctrl.obj
 0001:0002b178       ?__c16rtomb_utf8@__crt_mbstring@@YA_KPEAD_SPEAU_Mbstatet@@@Z 000000018002c178 f   libucrt:c16rtomb.obj
 0001:0002b220       ?__c32rtomb_utf8@__crt_mbstring@@YA_KPEAD_UPEAU_Mbstatet@@@Z 000000018002c220 f   libucrt:c32rtomb.obj
 0001:0002b2d8       c32rtomb                   000000018002c2d8 f   libucrt:c32rtomb.obj
 0001:0002b2dd       IsProcessorFeaturePresent  000000018002c2dd f   kernel32:KERNEL32.dll
 0001:0002b2e4       ?DloadAcquireSectionWriteAccess@@YAXXZ 000000018002c2e4 f i DelayImp:delayhlp.obj
 0001:0002b390       ?DloadGetSRWLockFunctionPointers@@YAEXZ 000000018002c390 f i DelayImp:delayhlp.obj
 0001:0002b42c       ?DloadMakePermanentImageCommit@@YAXPEAX_K@Z 000000018002c42c f i DelayImp:delayhlp.obj
 0001:0002b4c4       ?DloadObtainSection@@YAPEAXPEAK0@Z 000000018002c4c4 f i DelayImp:delayhlp.obj
 0001:0002b560       ?DloadProtectSection@@YAXKPEAK@Z 000000018002c560 f i DelayImp:delayhlp.obj
 0001:0002b5f0       ?DloadReleaseSectionWriteAccess@@YAXXZ 000000018002c5f0 f i DelayImp:delayhlp.obj
 0001:0002b684       __delayLoadHelper2         000000018002c684 f   DelayImp:delayhlp.obj
 0001:0002b950       _FindPESection             000000018002c950 f   LIBCMT:pesect.obj
 0001:0002b9a0       _IsNonwritableInCurrentImage 000000018002c9a0 f   LIBCMT:pesect.obj
 0001:0002b9f0       _ValidateImageBase         000000018002c9f0 f   LIBCMT:pesect.obj
 0001:0002ba20       __GSHandlerCheck           000000018002ca20 f   LIBCMT:_gshandler_.obj
 0001:0002ba40       __GSHandlerCheckCommon     000000018002ca40 f   LIBCMT:_gshandler_.obj
 0001:0002bab0       __chkstk                   000000018002cab0 f   LIBCMT:_chkstk_.obj
 0001:0002bab0       _alloca_probe              000000018002cab0 f   LIBCMT:_chkstk_.obj
 0001:0002bb04       __GSHandlerCheck_EH        000000018002cb04 f   LIBCMT:gshandlereh.obj
 0001:0002bb84       strrchr                    000000018002cb84 f   libvcruntime:strrchr.obj
 0001:0002bce0       memcmp                     000000018002cce0 f   libvcruntime:memcmp.obj
 0001:0002bdc0       _guard_dispatch_icall_nop  000000018002cdc0 f   LIBCMT:_guard_dispatch_.obj
 0002:00000000       __imp_GetModuleHandleA     000000018002e000     kernel32:KERNEL32.dll
 0002:00000008       __imp_LoadLibraryExA       000000018002e008     kernel32:KERNEL32.dll
 0002:00000010       __imp_RtlCaptureContext    000000018002e010     kernel32:KERNEL32.dll
 0002:00000018       __imp_RtlLookupFunctionEntry 000000018002e018     kernel32:KERNEL32.dll
 0002:00000020       __imp_RtlVirtualUnwind     000000018002e020     kernel32:KERNEL32.dll
 0002:00000028       __imp_UnhandledExceptionFilter 000000018002e028     kernel32:KERNEL32.dll
 0002:00000030       __imp_SetUnhandledExceptionFilter 000000018002e030     kernel32:KERNEL32.dll
 0002:00000038       __imp_GetCurrentProcess    000000018002e038     kernel32:KERNEL32.dll
 0002:00000040       __imp_TerminateProcess     000000018002e040     kernel32:KERNEL32.dll
 0002:00000048       __imp_IsProcessorFeaturePresent 000000018002e048     kernel32:KERNEL32.dll
 0002:00000050       __imp_QueryPerformanceCounter 000000018002e050     kernel32:KERNEL32.dll
 0002:00000058       __imp_GetCurrentProcessId  000000018002e058     kernel32:KERNEL32.dll
 0002:00000060       __imp_GetCurrentThreadId   000000018002e060     kernel32:KERNEL32.dll
 0002:00000068       __imp_GetSystemTimeAsFileTime 000000018002e068     kernel32:KERNEL32.dll
 0002:00000070       __imp_InitializeSListHead  000000018002e070     kernel32:KERNEL32.dll
 0002:00000078       __imp_IsDebuggerPresent    000000018002e078     kernel32:KERNEL32.dll
 0002:00000080       __imp_GetStartupInfoW      000000018002e080     kernel32:KERNEL32.dll
 0002:00000088       __imp_GetModuleHandleW     000000018002e088     kernel32:KERNEL32.dll
 0002:00000090       __imp_RtlUnwindEx          000000018002e090     kernel32:KERNEL32.dll
 0002:00000098       __imp_InterlockedFlushSList 000000018002e098     kernel32:KERNEL32.dll
 0002:000000a0       __imp_RtlPcToFileHeader    000000018002e0a0     kernel32:KERNEL32.dll
 0002:000000a8       __imp_RaiseException       000000018002e0a8     kernel32:KERNEL32.dll
 0002:000000b0       __imp_GetLastError         000000018002e0b0     kernel32:KERNEL32.dll
 0002:000000b8       __imp_SetLastError         000000018002e0b8     kernel32:KERNEL32.dll
 0002:000000c0       __imp_EnterCriticalSection 000000018002e0c0     kernel32:KERNEL32.dll
 0002:000000c8       __imp_LeaveCriticalSection 000000018002e0c8     kernel32:KERNEL32.dll
 0002:000000d0       __imp_DeleteCriticalSection 000000018002e0d0     kernel32:KERNEL32.dll
 0002:000000d8       __imp_InitializeCriticalSectionAndSpinCount 000000018002e0d8     kernel32:KERNEL32.dll
 0002:000000e0       __imp_TlsAlloc             000000018002e0e0     kernel32:KERNEL32.dll
 0002:000000e8       __imp_TlsGetValue          000000018002e0e8     kernel32:KERNEL32.dll
 0002:000000f0       __imp_TlsSetValue          000000018002e0f0     kernel32:KERNEL32.dll
 0002:000000f8       __imp_TlsFree              000000018002e0f8     kernel32:KERNEL32.dll
 0002:00000100       __imp_FreeLibrary          000000018002e100     kernel32:KERNEL32.dll
 0002:00000108       __imp_GetProcAddress       000000018002e108     kernel32:KERNEL32.dll
 0002:00000110       __imp_LoadLibraryExW       000000018002e110     kernel32:KERNEL32.dll
 0002:00000118       __imp_EncodePointer        000000018002e118     kernel32:KERNEL32.dll
 0002:00000120       __imp_GetStdHandle         000000018002e120     kernel32:KERNEL32.dll
 0002:00000128       __imp_GetFileType          000000018002e128     kernel32:KERNEL32.dll
 0002:00000130       __imp_GetModuleFileNameW   000000018002e130     kernel32:KERNEL32.dll
 0002:00000138       __imp_GetModuleHandleExW   000000018002e138     kernel32:KERNEL32.dll
 0002:00000140       __imp_WriteConsoleW        000000018002e140     kernel32:KERNEL32.dll
 0002:00000148       __imp_ExitProcess          000000018002e148     kernel32:KERNEL32.dll
 0002:00000150       __imp_WriteFile            000000018002e150     kernel32:KERNEL32.dll
 0002:00000158       __imp_OutputDebugStringW   000000018002e158     kernel32:KERNEL32.dll
 0002:00000160       __imp_HeapAlloc            000000018002e160     kernel32:KERNEL32.dll
 0002:00000168       __imp_HeapFree             000000018002e168     kernel32:KERNEL32.dll
 0002:00000170       __imp_LCMapStringW         000000018002e170     kernel32:KERNEL32.dll
 0002:00000178       __imp_FindClose            000000018002e178     kernel32:KERNEL32.dll
 0002:00000180       __imp_FindFirstFileExW     000000018002e180     kernel32:KERNEL32.dll
 0002:00000188       __imp_FindNextFileW        000000018002e188     kernel32:KERNEL32.dll
 0002:00000190       __imp_IsValidCodePage      000000018002e190     kernel32:KERNEL32.dll
 0002:00000198       __imp_GetACP               000000018002e198     kernel32:KERNEL32.dll
 0002:000001a0       __imp_GetOEMCP             000000018002e1a0     kernel32:KERNEL32.dll
 0002:000001a8       __imp_GetCPInfo            000000018002e1a8     kernel32:KERNEL32.dll
 0002:000001b0       __imp_GetCommandLineA      000000018002e1b0     kernel32:KERNEL32.dll
 0002:000001b8       __imp_GetCommandLineW      000000018002e1b8     kernel32:KERNEL32.dll
 0002:000001c0       __imp_MultiByteToWideChar  000000018002e1c0     kernel32:KERNEL32.dll
 0002:000001c8       __imp_WideCharToMultiByte  000000018002e1c8     kernel32:KERNEL32.dll
 0002:000001d0       __imp_GetEnvironmentStringsW 000000018002e1d0     kernel32:KERNEL32.dll
 0002:000001d8       __imp_FreeEnvironmentStringsW 000000018002e1d8     kernel32:KERNEL32.dll
 0002:000001e0       __imp_GetProcessHeap       000000018002e1e0     kernel32:KERNEL32.dll
 0002:000001e8       __imp_FlushFileBuffers     000000018002e1e8     kernel32:KERNEL32.dll
 0002:000001f0       __imp_GetConsoleCP         000000018002e1f0     kernel32:KERNEL32.dll
 0002:000001f8       __imp_GetConsoleMode       000000018002e1f8     kernel32:KERNEL32.dll
 0002:00000200       __imp_SetStdHandle         000000018002e200     kernel32:KERNEL32.dll
 0002:00000208       __imp_GetStringTypeW       000000018002e208     kernel32:KERNEL32.dll
 0002:00000210       __imp_HeapSize             000000018002e210     kernel32:KERNEL32.dll
 0002:00000218       __imp_HeapReAlloc          000000018002e218     kernel32:KERNEL32.dll
 0002:00000220       __imp_SetFilePointerEx     000000018002e220     kernel32:KERNEL32.dll
 0002:00000228       __imp_CloseHandle          000000018002e228     kernel32:KERNEL32.dll
 0002:00000230       __imp_CreateFileW          000000018002e230     kernel32:KERNEL32.dll
 0002:00000238       __imp_GetSystemInfo        000000018002e238     kernel32:KERNEL32.dll
 0002:00000240       __imp_VirtualProtect       000000018002e240     kernel32:KERNEL32.dll
 0002:00000248       __imp_VirtualQuery         000000018002e248     kernel32:KERNEL32.dll
 0002:00000250       \177KERNEL32_NULL_THUNK_DATA 000000018002e250     kernel32:KERNEL32.dll
 0002:00000258       __guard_check_icall_fptr   000000018002e258     LIBCMT:guard_support.obj
 0002:00000260       __guard_dispatch_icall_fptr 000000018002e260     LIBCMT:guard_support.obj
 0002:00000268       __xc_a                     000000018002e268     LIBCMT:initializers.obj
 0002:00000278       _register_secp256k1_       000000018002e278     addon.obj
 0002:00000280       __xc_z                     000000018002e280     LIBCMT:initializers.obj
 0002:00000288       __xi_a                     000000018002e288     LIBCMT:initializers.obj
 0002:00000290       __acrt_stdio_initializer   000000018002e290     libucrt:stdio_initializer.obj
 0002:00000298       __acrt_multibyte_initializer 000000018002e298     libucrt:multibyte_initializer.obj
 0002:000002a0       __acrt_tran_fma3_initializer 000000018002e2a0     libucrt:fma3_initializer.obj
 0002:000002a8       __xi_z                     000000018002e2a8     LIBCMT:initializers.obj
 0002:000002b0       __xp_a                     000000018002e2b0     LIBCMT:initializers.obj
 0002:000002b8       __acrt_locale_terminator   000000018002e2b8     libucrt:locale_initializer.obj
 0002:000002c0       __dcrt_console_output_terminator 000000018002e2c0     libucrt:console_output_initializer.obj
 0002:000002c8       __acrt_stdio_terminator    000000018002e2c8     libucrt:stdio_initializer.obj
 0002:000002d0       __xp_z                     000000018002e2d0     LIBCMT:initializers.obj
 0002:000002d8       __xt_a                     000000018002e2d8     LIBCMT:initializers.obj
 0002:000002e0       __xt_z                     000000018002e2e0     LIBCMT:initializers.obj
 0002:000002f0       __sz_node_exe              000000018002e2f0     node:node.exe
 0002:00000300       _pRawDllMain               000000018002e300     LIBCMT:dll_dllmain.obj
 0002:00000300       _pDefaultRawDllMain        000000018002e300     LIBCMT:dll_dllmain.obj
 0002:00000320       ??_7exception@std@@6B@     000000018002e320     LIBCMT:throw_bad_alloc.obj
 0002:00000330       ??_C@_0BC@EOODALEL@Unknown?5exception@ 000000018002e330     LIBCMT:throw_bad_alloc.obj
 0002:00000350       ??_7bad_alloc@std@@6B@     000000018002e350     LIBCMT:throw_bad_alloc.obj
 0002:00000360       ??_C@_0P@GHFPNOJB@bad?5allocation@ 000000018002e360     LIBCMT:throw_bad_alloc.obj
 0002:00000378       ??_7bad_array_new_length@std@@6B@ 000000018002e378     LIBCMT:throw_bad_alloc.obj
 0002:00000388       ??_C@_0BF@KINCDENJ@bad?5array?5new?5length@ 000000018002e388     LIBCMT:throw_bad_alloc.obj
 0002:000003a8       ??_7type_info@@6B@         000000018002e3a8     LIBCMT:std_type_info_static.obj
 0002:000003f0       _pDestructExceptionObject  000000018002e3f0     libvcruntime:ehhelpers.obj
 0002:00000738       ??_C@_08EHJDFFNH@__based?$CI@ 000000018002e738     libvcruntime:undname.obj
 0002:00000748       ??_C@_07KOLFKCDI@__cdecl@  000000018002e748     libvcruntime:undname.obj
 0002:00000750       ??_C@_08GHMPAG@__pascal@   000000018002e750     libvcruntime:undname.obj
 0002:00000760       ??_C@_09IFJBGAPI@__stdcall@ 000000018002e760     libvcruntime:undname.obj
 0002:00000770       ??_C@_0L@NPHFGOKO@__thiscall@ 000000018002e770     libvcruntime:undname.obj
 0002:00000780       ??_C@_0L@JMKHOMEK@__fastcall@ 000000018002e780     libvcruntime:undname.obj
 0002:00000790       ??_C@_0N@BCKKPABJ@__vectorcall@ 000000018002e790     libvcruntime:undname.obj
 0002:000007a0       ??_C@_09HIJEGCPM@__clrcall@ 000000018002e7a0     libvcruntime:undname.obj
 0002:000007ac       ??_C@_06GHPCKEAG@__eabi@   000000018002e7ac     libvcruntime:undname.obj
 0002:000007b8       ??_C@_09IOPIDJLG@__swift_1@ 000000018002e7b8     libvcruntime:undname.obj
 0002:000007c8       ??_C@_09KFNFGKHF@__swift_2@ 000000018002e7c8     libvcruntime:undname.obj
 0002:000007d8       ??_C@_07JOMMBBKO@__ptr64@  000000018002e7d8     libvcruntime:undname.obj
 0002:000007e0       ??_C@_0L@PILCLIHE@__restrict@ 000000018002e7e0     libvcruntime:undname.obj
 0002:000007f0       ??_C@_0M@GFIIJFMG@__unaligned@ 000000018002e7f0     libvcruntime:undname.obj
 0002:00000800       ??_C@_09DHDLOLLB@restrict?$CI@ 000000018002e800     libvcruntime:undname.obj
 0002:0000080a       ??_C@_00CNPNBAHC@@         000000018002e80a     libvcruntime:undname.obj
 0002:0000080c       ??_C@_04NIHEBCM@?5new@     000000018002e80c     libvcruntime:undname.obj
 0002:00000818       ??_C@_07FPCDHGMM@?5delete@ 000000018002e818     libvcruntime:undname.obj
 0002:00000820       ??_C@_01NEMOKFLO@?$DN@     000000018002e820     libvcruntime:undname.obj
 0002:00000824       ??_C@_02GPIOPFAK@?$DO?$DO@ 000000018002e824     libvcruntime:undname.obj
 0002:00000828       ??_C@_02FODMEDOG@?$DM?$DM@ 000000018002e828     libvcruntime:undname.obj
 0002:0000082c       ??_C@_01DCLJPIOD@?$CB@     000000018002e82c     libvcruntime:undname.obj
 0002:00000830       ??_C@_02EGOFBIJA@?$DN?$DN@ 000000018002e830     libvcruntime:undname.obj
 0002:00000834       ??_C@_02FDNJECIE@?$CB?$DN@ 000000018002e834     libvcruntime:undname.obj
 0002:00000838       ??_C@_02GPECMEKF@?$FL?$FN@ 000000018002e838     libvcruntime:undname.obj
 0002:00000840       ??_C@_08LHJFAFGD@operator@ 000000018002e840     libvcruntime:undname.obj
 0002:0000084c       ??_C@_02HBOOOICD@?9?$DO@   000000018002e84c     libvcruntime:undname.obj
 0002:00000850       ??_C@_01NBENCBCI@?$CK@     000000018002e850     libvcruntime:undname.obj
 0002:00000854       ??_C@_02ECNGHCIF@?$CL?$CL@ 000000018002e854     libvcruntime:undname.obj
 0002:00000858       ??_C@_02BAABKJLB@?9?9@     000000018002e858     libvcruntime:undname.obj
 0002:0000085c       ??_C@_01JOAMLHOP@?9@       000000018002e85c     libvcruntime:undname.obj
 0002:00000860       ??_C@_01MIFGBAGJ@?$CL@     000000018002e860     libvcruntime:undname.obj
 0002:00000864       ??_C@_01HNPIGOCE@?$CG@     000000018002e864     libvcruntime:undname.obj
 0002:00000868       ??_C@_03MNHNFDLC@?9?$DO?$CK@ 000000018002e868     libvcruntime:undname.obj
 0002:0000086c       ??_C@_01KMDKNFGN@?1@       000000018002e86c     libvcruntime:undname.obj
 0002:00000870       ??_C@_01FGNFDNOH@?$CF@     000000018002e870     libvcruntime:undname.obj
 0002:00000874       ??_C@_01MNNFJEPP@?$DM@     000000018002e874     libvcruntime:undname.obj
 0002:00000878       ??_C@_02EHCHHCKH@?$DM?$DN@ 000000018002e878     libvcruntime:undname.obj
 0002:0000087c       ??_C@_01PPODPGHN@?$DO@     000000018002e87c     libvcruntime:undname.obj
 0002:00000880       ??_C@_02EEKDKGMJ@?$DO?$DN@ 000000018002e880     libvcruntime:undname.obj
 0002:00000884       ??_C@_01IHBHIGKO@?0@       000000018002e884     libvcruntime:undname.obj
 0002:00000888       ??_C@_02HCKGKOFO@?$CI?$CJ@ 000000018002e888     libvcruntime:undname.obj
 0002:0000088c       ??_C@_01PJKLJHI@?$HO@      000000018002e88c     libvcruntime:undname.obj
 0002:00000890       ??_C@_01JKBOJNNK@?$FO@     000000018002e890     libvcruntime:undname.obj
 0002:00000894       ??_C@_01DNKMNLPK@?$HM@     000000018002e894     libvcruntime:undname.obj
 0002:00000898       ??_C@_02PPKAJPJL@?$CG?$CG@ 000000018002e898     libvcruntime:undname.obj
 0002:0000089c       ??_C@_02NONPIBCD@?$HM?$HM@ 000000018002e89c     libvcruntime:undname.obj
 0002:000008a0       ??_C@_02FPIMKNGF@?$CK?$DN@ 000000018002e8a0     libvcruntime:undname.obj
 0002:000008a4       ??_C@_02FOEOMHFC@?$CL?$DN@ 000000018002e8a4     libvcruntime:undname.obj
 0002:000008a8       ??_C@_02FKMDLLOA@?9?$DN@   000000018002e8a8     libvcruntime:undname.obj
 0002:000008ac       ??_C@_02FJEHGPIO@?1?$DN@   000000018002e8ac     libvcruntime:undname.obj
 0002:000008b0       ??_C@_02FENAOKFI@?$CF?$DN@ 000000018002e8b0     libvcruntime:undname.obj
 0002:000008b4       ??_C@_03IKFCCPFF@?$DO?$DO?$DN@ 000000018002e8b4     libvcruntime:undname.obj
 0002:000008b8       ??_C@_03CDNPDDLA@?$DM?$DM?$DN@ 000000018002e8b8     libvcruntime:undname.obj
 0002:000008bc       ??_C@_02FGJGFEAB@?$CG?$DN@ 000000018002e8bc     libvcruntime:undname.obj
 0002:000008c0       ??_C@_02DHLNPPGH@?$HM?$DN@ 000000018002e8c0     libvcruntime:undname.obj
 0002:000008c4       ??_C@_02MHEGNOJ@?$FO?$DN@  000000018002e8c4     libvcruntime:undname.obj
 0002:000008c8       ??_C@_09IFPLHPGF@?$GAvftable?8@ 000000018002e8c8     libvcruntime:undname.obj
 0002:000008d8       ??_C@_09BLBHBJP@?$GAvbtable?8@ 000000018002e8d8     libvcruntime:undname.obj
 0002:000008e8       ??_C@_07FEEIOKP@?$GAvcall?8@ 000000018002e8e8     libvcruntime:undname.obj
 0002:000008f0       ??_C@_08LLFFHHDJ@?$GAtypeof?8@ 000000018002e8f0     libvcruntime:undname.obj
 0002:00000900       ??_C@_0BF@KDPPACIK@?$GAlocal?5static?5guard?8@ 000000018002e900     libvcruntime:undname.obj
 0002:00000918       ??_C@_08OBABFOLI@?$GAstring?8@ 000000018002e918     libvcruntime:undname.obj
 0002:00000928       ??_C@_0BD@JDLKDPAB@?$GAvbase?5destructor?8@ 000000018002e928     libvcruntime:undname.obj
 0002:00000940       ??_C@_0BN@DEGPLNFK@?$GAvector?5deleting?5destructor?8@ 000000018002e940     libvcruntime:undname.obj
 0002:00000960       ??_C@_0BO@OBMKPJIG@?$GAdefault?5constructor?5closure?8@ 000000018002e960     libvcruntime:undname.obj
 0002:00000980       ??_C@_0BN@IMDCHIKM@?$GAscalar?5deleting?5destructor?8@ 000000018002e980     libvcruntime:undname.obj
 0002:000009a0       ??_C@_0BO@PFGOCPJJ@?$GAvector?5constructor?5iterator?8@ 000000018002e9a0     libvcruntime:undname.obj
 0002:000009c0       ??_C@_0BN@LFPFMEDL@?$GAvector?5destructor?5iterator?8@ 000000018002e9c0     libvcruntime:undname.obj
 0002:000009e0       ??_C@_0CE@IKBNEHA@?$GAvector?5vbase?5constructor?5itera@ 000000018002e9e0     libvcruntime:undname.obj
 0002:00000a08       ??_C@_0BL@NILFHHPC@?$GAvirtual?5displacement?5map?8@ 000000018002ea08     libvcruntime:undname.obj
 0002:00000a28       ??_C@_0CB@JONCMFFK@?$GAeh?5vector?5constructor?5iterator@ 000000018002ea28     libvcruntime:undname.obj
 0002:00000a50       ??_C@_0CA@GCEOPDGL@?$GAeh?5vector?5destructor?5iterator?8@ 000000018002ea50     libvcruntime:undname.obj
 0002:00000a70       ??_C@_0CH@OOJPLCPH@?$GAeh?5vector?5vbase?5constructor?5it@ 000000018002ea70     libvcruntime:undname.obj
 0002:00000a98       ??_C@_0BL@LLKPOHJI@?$GAcopy?5constructor?5closure?8@ 000000018002ea98     libvcruntime:undname.obj
 0002:00000ab8       ??_C@_0BA@KBCDOMBN@?$GAudt?5returning?8@ 000000018002eab8     libvcruntime:undname.obj
 0002:00000ac8       ??_C@_03KLGMFNMG@?$GAEH@   000000018002eac8     libvcruntime:undname.obj
 0002:00000acc       ??_C@_05KHLCHHI@?$GARTTI@  000000018002eacc     libvcruntime:undname.obj
 0002:00000ad8       ??_C@_0BA@KKLDJDLB@?$GAlocal?5vftable?8@ 000000018002ead8     libvcruntime:undname.obj
 0002:00000ae8       ??_C@_0CE@IIHCMGGL@?$GAlocal?5vftable?5constructor?5clos@ 000000018002eae8     libvcruntime:undname.obj
 0002:00000b0c       ??_C@_06FHBGPFGH@?5new?$FL?$FN@ 000000018002eb0c     libvcruntime:undname.obj
 0002:00000b18       ??_C@_09LBNFPBCA@?5delete?$FL?$FN@ 000000018002eb18     libvcruntime:undname.obj
 0002:00000b28       ??_C@_0P@HJKNJFNN@?$GAomni?5callsig?8@ 000000018002eb28     libvcruntime:undname.obj
 0002:00000b38       ??_C@_0BL@CNOONJFP@?$GAplacement?5delete?5closure?8@ 000000018002eb38     libvcruntime:undname.obj
 0002:00000b58       ??_C@_0BN@CKNJLHMB@?$GAplacement?5delete?$FL?$FN?5closure?8@ 000000018002eb58     libvcruntime:undname.obj
 0002:00000b78       ??_C@_0CG@CFDHKGGD@?$GAmanaged?5vector?5constructor?5ite@ 000000018002eb78     libvcruntime:undname.obj
 0002:00000ba0       ??_C@_0CF@IMGKMJNO@?$GAmanaged?5vector?5destructor?5iter@ 000000018002eba0     libvcruntime:undname.obj
 0002:00000bc8       ??_C@_0CG@HLDDJMAG@?$GAeh?5vector?5copy?5constructor?5ite@ 000000018002ebc8     libvcruntime:undname.obj
 0002:00000bf0       ??_C@_0CM@FCBBDIGB@?$GAeh?5vector?5vbase?5copy?5construct@ 000000018002ebf0     libvcruntime:undname.obj
 0002:00000c20       ??_C@_0BL@CLIPGLGB@?$GAdynamic?5initializer?5for?5?8@ 000000018002ec20     libvcruntime:undname.obj
 0002:00000c40       ??_C@_0CB@PDBIFEP@?$GAdynamic?5atexit?5destructor?5for?5@ 000000018002ec40     libvcruntime:undname.obj
 0002:00000c68       ??_C@_0CD@CGAJBKEJ@?$GAvector?5copy?5constructor?5iterat@ 000000018002ec68     libvcruntime:undname.obj
 0002:00000c90       ??_C@_0CJ@GJELGAMM@?$GAvector?5vbase?5copy?5constructor?5@ 000000018002ec90     libvcruntime:undname.obj
 0002:00000cc0       ??_C@_0CL@FGIJHLCE@?$GAmanaged?5vector?5copy?5constructo@ 000000018002ecc0     libvcruntime:undname.obj
 0002:00000cf0       ??_C@_0BM@PMGGMLDN@?$GAlocal?5static?5thread?5guard?8@ 000000018002ecf0     libvcruntime:undname.obj
 0002:00000d10       ??_C@_0N@BDNMDMOL@operator?5?$CC?$CC?5@ 000000018002ed10     libvcruntime:undname.obj
 0002:00000d20       ??_C@_0BC@GGEBGALA@operator?5co_await@ 000000018002ed20     libvcruntime:undname.obj
 0002:00000d38       ??_C@_0BC@DAFEJGAK@?5Type?5Descriptor?8@ 000000018002ed38     libvcruntime:undname.obj
 0002:00000d50       ??_C@_0BM@LDKODKLH@?5Base?5Class?5Descriptor?5at?5?$CI@ 000000018002ed50     libvcruntime:undname.obj
 0002:00000d70       ??_C@_0BD@LGICGFMM@?5Base?5Class?5Array?8@ 000000018002ed70     libvcruntime:undname.obj
 0002:00000d88       ??_C@_0BN@MECKDCOJ@?5Class?5Hierarchy?5Descriptor?8@ 000000018002ed88     libvcruntime:undname.obj
 0002:00000da8       ??_C@_0BK@CFCOFLF@?5Complete?5Object?5Locator?8@ 000000018002eda8     libvcruntime:undname.obj
 0002:00000de0       ??_C@_1DM@KHCHBNEB@?$AAa?$AAp?$AAi?$AA?9?$AAm?$AAs?$AA?9?$AAw?$AAi?$AAn?$AA?9?$AAc?$AAo?$AAr?$AAe@ 000000018002ede0     libvcruntime:winapi_downlevel.obj
 0002:00000e20       ??_C@_1DK@LPPGFMPP@?$AAa?$AAp?$AAi?$AA?9?$AAm?$AAs?$AA?9?$AAw?$AAi?$AAn?$AA?9?$AAc?$AAo?$AAr?$AAe@ 000000018002ee20     libvcruntime:winapi_downlevel.obj
 0002:00000e60       ??_C@_1BC@GDMECMAK@?$AAk?$AAe?$AAr?$AAn?$AAe?$AAl?$AA3?$AA2@ 000000018002ee60     libvcruntime:winapi_downlevel.obj
 0002:00000e78       ??_C@_1BA@PFFKHIOG@?$AAa?$AAp?$AAi?$AA?9?$AAm?$AAs?$AA?9@ 000000018002ee78     libvcruntime:winapi_downlevel.obj
 0002:00000e88       ??_C@_1BA@IAIFMGEF@?$AAe?$AAx?$AAt?$AA?9?$AAm?$AAs?$AA?9@ 000000018002ee88     libvcruntime:winapi_downlevel.obj
 0002:00000ea0       ??_C@_08KNHFBNJ@FlsAlloc@  000000018002eea0     libvcruntime:winapi_downlevel.obj
 0002:00000eb8       ??_C@_07PEJMOBNF@FlsFree@  000000018002eeb8     libvcruntime:winapi_downlevel.obj
 0002:00000ec8       ??_C@_0M@GDNOONDI@FlsGetValue@ 000000018002eec8     libvcruntime:winapi_downlevel.obj
 0002:00000ee0       ??_C@_0M@JCPCPOEF@FlsSetValue@ 000000018002eee0     libvcruntime:winapi_downlevel.obj
 0002:00000ef8       ??_C@_0BM@HCFOFFN@InitializeCriticalSectionEx@ 000000018002eef8     libvcruntime:winapi_downlevel.obj
 0002:00000fc0       ??_7bad_exception@std@@6B@ 000000018002efc0     libvcruntime:frame.obj
 0002:00000fd0       ??_C@_0O@DPKOEFFH@bad?5exception@ 000000018002efd0     libvcruntime:frame.obj
 0002:00000fe0       ??_C@_1FE@LHBLIKM@?$AAA?$AAs?$AAs?$AAe?$AAr?$AAt?$AAi?$AAo?$AAn?$AA?5?$AAf?$AAa?$AAi?$AAl?$AAe?$AAd?$AA?3?$AA?5?$AA?$CF?$AAT?$AAs?$AA?0?$AA?5?$AAf?$AAi?$AAl?$AAe?$AA?5?$AA?$CF?$AAT?$AAs?$AA?0@ 000000018002efe0     libucrt:assert.obj
 0002:00001040       ??_C@_1EK@MBDPDCGA@?$AAM?$AAi?$AAc?$AAr?$AAo?$AAs?$AAo?$AAf?$AAt?$AA?5?$AAV?$AAi?$AAs?$AAu?$AAa?$AAl?$AA?5?$AAC?$AA?$CL?$AA?$CL?$AA?5?$AAR?$AAu?$AAn?$AAt?$AAi?$AAm?$AAe?$AA?5?$AAL?$AAi?$AAb@ 000000018002f040     libucrt:assert.obj
 0002:00001090       ??_C@_1CE@OJBNHDMO@?$AAA?$AAs?$AAs?$AAe?$AAr?$AAt?$AAi?$AAo?$AAn?$AA?5?$AAf?$AAa?$AAi?$AAl?$AAe?$AAd?$AA?$CB?$AA?$AA@ 000000018002f090     libucrt:assert.obj
 0002:000010b8       ??_C@_1BE@PHKBBGE@?$AAP?$AAr?$AAo?$AAg?$AAr?$AAa?$AAm?$AA?3?$AA?5?$AA?$AA@ 000000018002f0b8     libucrt:assert.obj
 0002:000010d0       ??_C@_1O@HEMHKNDC@?$AAF?$AAi?$AAl?$AAe?$AA?3?$AA?5?$AA?$AA@ 000000018002f0d0     libucrt:assert.obj
 0002:000010e0       ??_C@_1O@KCAFKHJE@?$AAL?$AAi?$AAn?$AAe?$AA?3?$AA?5?$AA?$AA@ 000000018002f0e0     libucrt:assert.obj
 0002:000010f0       ??_C@_1BK@PEDCIPMA@?$AAE?$AAx?$AAp?$AAr?$AAe?$AAs?$AAs?$AAi?$AAo?$AAn?$AA?3?$AA?5?$AA?$AA@ 000000018002f0f0     libucrt:assert.obj
 0002:00001110       ??_C@_1OA@EGMLFBHJ@?$AAF?$AAo?$AAr?$AA?5?$AAi?$AAn?$AAf?$AAo?$AAr?$AAm?$AAa?$AAt?$AAi?$AAo?$AAn?$AA?5?$AAo?$AAn?$AA?5?$AAh?$AAo?$AAw?$AA?5?$AAy?$AAo?$AAu?$AAr?$AA?5?$AAp?$AAr?$AAo?$AAg@ 000000018002f110     libucrt:assert.obj
 0002:000011f0       ??_C@_1HK@POCJMFGK@?$AA?$CI?$AAP?$AAr?$AAe?$AAs?$AAs?$AA?5?$AAR?$AAe?$AAt?$AAr?$AAy?$AA?5?$AAt?$AAo?$AA?5?$AAd?$AAe?$AAb?$AAu?$AAg?$AA?5?$AAt?$AAh?$AAe?$AA?5?$AAa?$AAp?$AAp?$AAl?$AAi?$AAc@ 000000018002f1f0     libucrt:assert.obj
 0002:00001270       ??_C@_17LGKOMLJ@?$AA?4?$AA?4?$AA?4?$AA?$AA@ 000000018002f270     libucrt:assert.obj
 0002:00001278       ??_C@_13LBAGMAIH@?$AA?6?$AA?$AA@ 000000018002f278     libucrt:assert.obj
 0002:0000127c       ??_C@_15IABLJNFO@?$AA?6?$AA?6?$AA?$AA@ 000000018002f27c     libucrt:assert.obj
 0002:00001288       ??_C@_1CO@EAEJAADC@?$AA?$DM?$AAp?$AAr?$AAo?$AAg?$AAr?$AAa?$AAm?$AA?5?$AAn?$AAa?$AAm?$AAe?$AA?5?$AAu?$AAn?$AAk?$AAn?$AAo?$AAw?$AAn?$AA?$DO?$AA?$AA@ 000000018002f288     libucrt:assert.obj
 0002:000012c0       standard_lookup_table      000000018002f2c0     libucrt:output.obj
 0002:00001320       ??_C@_1O@CEDCILHN@?$AA?$CI?$AAn?$AAu?$AAl?$AAl?$AA?$CJ?$AA?$AA@ 000000018002f320     libucrt:output.obj
 0002:00001330       ??_C@_06OJHGLDPL@?$CInull?$CJ?$AA@ 000000018002f330     libucrt:output.obj
 0002:00001340       __acrt_exception_action_table 000000018002f340     libucrt:exception_filter.obj
 0002:00001400       __acrt_signal_action_table_count 000000018002f400     libucrt:exception_filter.obj
 0002:00001408       __acrt_signal_action_first_fpe_index 000000018002f408     libucrt:exception_filter.obj
 0002:00001410       __acrt_signal_action_fpe_count 000000018002f410     libucrt:exception_filter.obj
 0002:00001418       ??_C@_1BI@BGOHAHKC@?$AAm?$AAs?$AAc?$AAo?$AAr?$AAe?$AAe?$AA?4?$AAd?$AAl?$AAl?$AA?$AA@ 000000018002f418     libucrt:exit.obj
 0002:00001430       ??_C@_0P@MIGLKIOC@CorExitProcess?$AA@ 000000018002f430     libucrt:exit.obj
 0002:00001740       ??_C@_1EA@JGEFHKEI@?$AAa?$AAp?$AAi?$AA?9?$AAm?$AAs?$AA?9?$AAw?$AAi?$AAn?$AA?9?$AAc?$AAo?$AAr?$AAe?$AA?9?$AAd?$AAa?$AAt?$AAe?$AAt?$AAi?$AAm?$AAe?$AA?9?$AAl?$AA1?$AA?9?$AA1?$AA?9?$AA1?$AA?$AA@ 000000018002f740     libucrt:winapi_thunks.obj
 0002:00001780       ??_C@_1DM@KHCHBNEB@?$AAa?$AAp?$AAi?$AA?9?$AAm?$AAs?$AA?9?$AAw?$AAi?$AAn?$AA?9?$AAc?$AAo?$AAr?$AAe?$AA?9?$AAf?$AAi?$AAb?$AAe?$AAr?$AAs?$AA?9?$AAl?$AA1?$AA?9?$AA1?$AA?9?$AA1?$AA?$AA@ 000000018002f780     libucrt:winapi_thunks.obj
 0002:000017c0       ??_C@_1DI@IJCEHOCB@?$AAa?$AAp?$AAi?$AA?9?$AAm?$AAs?$AA?9?$AAw?$AAi?$AAn?$AA?9?$AAc?$AAo?$AAr?$AAe?$AA?9?$AAf?$AAi?$AAl?$AAe?$AA?9?$AAl?$AA1?$AA?9?$AA2?$AA?9?$AA2?$AA?$AA@ 000000018002f7c0     libucrt:winapi_thunks.obj
 0002:00001800       ??_C@_1EI@MPIAOHOC@?$AAa?$AAp?$AAi?$AA?9?$AAm?$AAs?$AA?9?$AAw?$AAi?$AAn?$AA?9?$AAc?$AAo?$AAr?$AAe?$AA?9?$AAl?$AAo?$AAc?$AAa?$AAl?$AAi?$AAz?$AAa?$AAt?$AAi?$AAo?$AAn?$AA?9?$AAl?$AA1?$AA?9@ 000000018002f800     libucrt:winapi_thunks.obj
 0002:00001850       ??_C@_1FK@FPHCKFIE@?$AAa?$AAp?$AAi?$AA?9?$AAm?$AAs?$AA?9?$AAw?$AAi?$AAn?$AA?9?$AAc?$AAo?$AAr?$AAe?$AA?9?$AAl?$AAo?$AAc?$AAa?$AAl?$AAi?$AAz?$AAa?$AAt?$AAi?$AAo?$AAn?$AA?9?$AAo?$AAb?$AAs@ 000000018002f850     libucrt:winapi_thunks.obj
 0002:000018b0       ??_C@_1EM@DILCGIIO@?$AAa?$AAp?$AAi?$AA?9?$AAm?$AAs?$AA?9?$AAw?$AAi?$AAn?$AA?9?$AAc?$AAo?$AAr?$AAe?$AA?9?$AAp?$AAr?$AAo?$AAc?$AAe?$AAs?$AAs?$AAt?$AAh?$AAr?$AAe?$AAa?$AAd?$AAs?$AA?9?$AAl@ 000000018002f8b0     libucrt:winapi_thunks.obj
 0002:00001900       ??_C@_1DM@LNCGDDPN@?$AAa?$AAp?$AAi?$AA?9?$AAm?$AAs?$AA?9?$AAw?$AAi?$AAn?$AA?9?$AAc?$AAo?$AAr?$AAe?$AA?9?$AAs?$AAt?$AAr?$AAi?$AAn?$AAg?$AA?9?$AAl?$AA1?$AA?9?$AA1?$AA?9?$AA0?$AA?$AA@ 000000018002f900     libucrt:winapi_thunks.obj
 0002:00001940       ??_C@_1DK@LPPGFMPP@?$AAa?$AAp?$AAi?$AA?9?$AAm?$AAs?$AA?9?$AAw?$AAi?$AAn?$AA?9?$AAc?$AAo?$AAr?$AAe?$AA?9?$AAs?$AAy?$AAn?$AAc?$AAh?$AA?9?$AAl?$AA1?$AA?9?$AA2?$AA?9?$AA0?$AA?$AA@ 000000018002f940     libucrt:winapi_thunks.obj
 0002:00001980       ??_C@_1DO@FPAPJEMD@?$AAa?$AAp?$AAi?$AA?9?$AAm?$AAs?$AA?9?$AAw?$AAi?$AAn?$AA?9?$AAc?$AAo?$AAr?$AAe?$AA?9?$AAs?$AAy?$AAs?$AAi?$AAn?$AAf?$AAo?$AA?9?$AAl?$AA1?$AA?9?$AA2?$AA?9?$AA1?$AA?$AA@ 000000018002f980     libucrt:winapi_thunks.obj
 0002:000019c0       ??_C@_1DK@NDHNAHIO@?$AAa?$AAp?$AAi?$AA?9?$AAm?$AAs?$AA?9?$AAw?$AAi?$AAn?$AA?9?$AAc?$AAo?$AAr?$AAe?$AA?9?$AAw?$AAi?$AAn?$AAr?$AAt?$AA?9?$AAl?$AA1?$AA?9?$AA1?$AA?9?$AA0?$AA?$AA@ 000000018002f9c0     libucrt:winapi_thunks.obj
 0002:00001a00       ??_C@_1DM@KGHDGBCM@?$AAa?$AAp?$AAi?$AA?9?$AAm?$AAs?$AA?9?$AAw?$AAi?$AAn?$AA?9?$AAc?$AAo?$AAr?$AAe?$AA?9?$AAx?$AAs?$AAt?$AAa?$AAt?$AAe?$AA?9?$AAl?$AA2?$AA?9?$AA1?$AA?9?$AA0?$AA?$AA@ 000000018002fa00     libucrt:winapi_thunks.obj
 0002:00001a40       ??_C@_1EO@IJIOEFOH@?$AAa?$AAp?$AAi?$AA?9?$AAm?$AAs?$AA?9?$AAw?$AAi?$AAn?$AA?9?$AAr?$AAt?$AAc?$AAo?$AAr?$AAe?$AA?9?$AAn?$AAt?$AAu?$AAs?$AAe?$AAr?$AA?9?$AAw?$AAi?$AAn?$AAd?$AAo?$AAw?$AA?9@ 000000018002fa40     libucrt:winapi_thunks.obj
 0002:00001a90       ??_C@_1FG@HHGEKANL@?$AAa?$AAp?$AAi?$AA?9?$AAm?$AAs?$AA?9?$AAw?$AAi?$AAn?$AA?9?$AAs?$AAe?$AAc?$AAu?$AAr?$AAi?$AAt?$AAy?$AA?9?$AAs?$AAy?$AAs?$AAt?$AAe?$AAm?$AAf?$AAu?$AAn?$AAc?$AAt?$AAi@ 000000018002fa90     libucrt:winapi_thunks.obj
 0002:00001af0       ??_C@_1EG@DBIOJECG@?$AAe?$AAx?$AAt?$AA?9?$AAm?$AAs?$AA?9?$AAw?$AAi?$AAn?$AA?9?$AAn?$AAt?$AAu?$AAs?$AAe?$AAr?$AA?9?$AAd?$AAi?$AAa?$AAl?$AAo?$AAg?$AAb?$AAo?$AAx?$AA?9?$AAl?$AA1?$AA?9?$AA1@ 000000018002faf0     libucrt:winapi_thunks.obj
 0002:00001b40       ??_C@_1EO@FIHMJCLF@?$AAe?$AAx?$AAt?$AA?9?$AAm?$AAs?$AA?9?$AAw?$AAi?$AAn?$AA?9?$AAn?$AAt?$AAu?$AAs?$AAe?$AAr?$AA?9?$AAw?$AAi?$AAn?$AAd?$AAo?$AAw?$AAs?$AAt?$AAa?$AAt?$AAi?$AAo?$AAn?$AA?9@ 000000018002fb40     libucrt:winapi_thunks.obj
 0002:00001b90       ??_C@_1BC@DNHGCMLG@?$AAa?$AAd?$AAv?$AAa?$AAp?$AAi?$AA3?$AA2?$AA?$AA@ 000000018002fb90     libucrt:winapi_thunks.obj
 0002:00001ba8       ??_C@_1BC@GDMECMAK@?$AAk?$AAe?$AAr?$AAn?$AAe?$AAl?$AA3?$AA2?$AA?$AA@ 000000018002fba8     libucrt:winapi_thunks.obj
 0002:00001bc0       ??_C@_1M@OAIMIKLP@?$AAn?$AAt?$AAd?$AAl?$AAl?$AA?$AA@ 000000018002fbc0     libucrt:winapi_thunks.obj
 0002:00001bd0       ??_C@_1EG@DPGNFKGC@?$AAa?$AAp?$AAi?$AA?9?$AAm?$AAs?$AA?9?$AAw?$AAi?$AAn?$AA?9?$AAa?$AAp?$AAp?$AAm?$AAo?$AAd?$AAe?$AAl?$AA?9?$AAr?$AAu?$AAn?$AAt?$AAi?$AAm?$AAe?$AA?9?$AAl?$AA1?$AA?9?$AA1@ 000000018002fbd0     libucrt:winapi_thunks.obj
 0002:00001c18       ??_C@_1O@BCCLBEOE@?$AAu?$AAs?$AAe?$AAr?$AA3?$AA2?$AA?$AA@ 000000018002fc18     libucrt:winapi_thunks.obj
 0002:00001c28       ??_C@_1BA@PFFKHIOG@?$AAa?$AAp?$AAi?$AA?9?$AAm?$AAs?$AA?9?$AA?$AA@ 000000018002fc28     libucrt:winapi_thunks.obj
 0002:00001c38       ??_C@_1BA@IAIFMGEF@?$AAe?$AAx?$AAt?$AA?9?$AAm?$AAs?$AA?9?$AA?$AA@ 000000018002fc38     libucrt:winapi_thunks.obj
 0002:00001c50       ??_C@_08KNHFBNJ@FlsAlloc?$AA@ 000000018002fc50     libucrt:winapi_thunks.obj
 0002:00001c68       ??_C@_07PEJMOBNF@FlsFree?$AA@ 000000018002fc68     libucrt:winapi_thunks.obj
 0002:00001c78       ??_C@_0M@GDNOONDI@FlsGetValue?$AA@ 000000018002fc78     libucrt:winapi_thunks.obj
 0002:00001c90       ??_C@_0M@JCPCPOEF@FlsSetValue?$AA@ 000000018002fc90     libucrt:winapi_thunks.obj
 0002:00001ca8       ??_C@_0BA@HNOPNCHB@GetActiveWindow?$AA@ 000000018002fca8     libucrt:winapi_thunks.obj
 0002:00001cc0       ??_C@_0BD@HHGDFDBJ@GetLastActivePopup?$AA@ 000000018002fcc0     libucrt:winapi_thunks.obj
 0002:00001ce0       ??_C@_0BI@DFKBFLJE@GetProcessWindowStation?$AA@ 000000018002fce0     libucrt:winapi_thunks.obj
 0002:00001d00       ??_C@_0BK@DEKFELLI@GetUserObjectInformationW?$AA@ 000000018002fd00     libucrt:winapi_thunks.obj
 0002:00001d28       ??_C@_0BM@HCFOFFN@InitializeCriticalSectionEx?$AA@ 000000018002fd28     libucrt:winapi_thunks.obj
 0002:00001d50       ??_C@_0O@KKBNKAPF@LCMapStringEx?$AA@ 000000018002fd50     libucrt:winapi_thunks.obj
 0002:00001d68       ??_C@_0BB@HBDEELFH@LocaleNameToLCID?$AA@ 000000018002fd68     libucrt:winapi_thunks.obj
 0002:00001d88       ??_C@_0M@CHKKJDAI@MessageBoxA?$AA@ 000000018002fd88     libucrt:winapi_thunks.obj
 0002:00001da0       ??_C@_0M@DLDCCGNP@MessageBoxW?$AA@ 000000018002fda0     libucrt:winapi_thunks.obj
 0002:00001db0       ??_C@_0CF@OJOFEIGO@AppPolicyGetProcessTerminationMe@ 000000018002fdb0     libucrt:winapi_thunks.obj
 0002:00001de0       ??_C@_0CE@OICFMIKE@AppPolicyGetShowDeveloperDiagnos@ 000000018002fde0     libucrt:winapi_thunks.obj
 0002:00001e08       ??_C@_0BL@ODDJNEDA@AppPolicyGetWindowingModel?$AA@ 000000018002fe08     libucrt:winapi_thunks.obj
 0002:00001e24       ??_C@_03OEIAHPBN@INF?$AA@  000000018002fe24     libucrt:cvt.obj
 0002:00001e28       ??_C@_03OJHLLCGB@inf?$AA@  000000018002fe28     libucrt:cvt.obj
 0002:00001e2c       ??_C@_03LKNCIKJB@NAN?$AA@  000000018002fe2c     libucrt:cvt.obj
 0002:00001e30       ??_C@_03LHCJEHON@nan?$AA@  000000018002fe30     libucrt:cvt.obj
 0002:00001e38       ??_C@_09OFJJIMPC@NAN?$CISNAN?$CJ?$AA@ 000000018002fe38     libucrt:cvt.obj
 0002:00001e48       ??_C@_09IPFBKMDL@nan?$CIsnan?$CJ?$AA@ 000000018002fe48     libucrt:cvt.obj
 0002:00001e58       ??_C@_08IKHNHAJ@NAN?$CIIND?$CJ?$AA@ 000000018002fe58     libucrt:cvt.obj
 0002:00001e68       ??_C@_08OFCDMILK@nan?$CIind?$CJ?$AA@ 000000018002fe68     libucrt:cvt.obj
 0002:00001e74       ??_C@_05KLBDPFGC@e?$CL000?$AA@ 000000018002fe74     libucrt:cvt.obj
 0002:00001e80       __lc_time_c                000000018002fe80     libucrt:nlsdata.obj
 0002:00002140       ??_C@_03KOEHGMDN@Sun?$AA@  0000000180030140     libucrt:nlsdata.obj
 0002:00002144       ??_C@_03PDAGKDH@Mon?$AA@   0000000180030144     libucrt:nlsdata.obj
 0002:00002148       ??_C@_03NAGEINEP@Tue?$AA@  0000000180030148     libucrt:nlsdata.obj
 0002:0000214c       ??_C@_03MHOMLAJA@Wed?$AA@  000000018003014c     libucrt:nlsdata.obj
 0002:00002150       ??_C@_03IOFIKPDN@Thu?$AA@  0000000180030150     libucrt:nlsdata.obj
 0002:00002154       ??_C@_03IDIOELNC@Fri?$AA@  0000000180030154     libucrt:nlsdata.obj
 0002:00002158       ??_C@_03FEFJNEK@Sat?$AA@   0000000180030158     libucrt:nlsdata.obj
 0002:0000215c       ??_C@_06OOPIFAJ@Sunday?$AA@ 000000018003015c     libucrt:nlsdata.obj
 0002:00002164       ??_C@_06JLEDEDGH@Monday?$AA@ 0000000180030164     libucrt:nlsdata.obj
 0002:00002170       ??_C@_07BAAGCFCM@Tuesday?$AA@ 0000000180030170     libucrt:nlsdata.obj
 0002:00002178       ??_C@_09DLIGFAKA@Wednesday?$AA@ 0000000180030178     libucrt:nlsdata.obj
 0002:00002188       ??_C@_08HACCIKIA@Thursday?$AA@ 0000000180030188     libucrt:nlsdata.obj
 0002:00002194       ??_C@_06JECMNKMI@Friday?$AA@ 0000000180030194     libucrt:nlsdata.obj
 0002:000021a0       ??_C@_08INBOOONO@Saturday?$AA@ 00000001800301a0     libucrt:nlsdata.obj
 0002:000021ac       ??_C@_03JIHJHPIE@Jan?$AA@  00000001800301ac     libucrt:nlsdata.obj
 0002:000021b0       ??_C@_03HJBDCHOM@Feb?$AA@  00000001800301b0     libucrt:nlsdata.obj
 0002:000021b4       ??_C@_03ODNJBKGA@Mar?$AA@  00000001800301b4     libucrt:nlsdata.obj
 0002:000021b8       ??_C@_03LEOLGMJP@Apr?$AA@  00000001800301b8     libucrt:nlsdata.obj
 0002:000021bc       ??_C@_03CNMDKL@May?$AA@    00000001800301bc     libucrt:nlsdata.obj
 0002:000021c0       ??_C@_03IDFGHECI@Jun?$AA@  00000001800301c0     libucrt:nlsdata.obj
 0002:000021c4       ??_C@_03LBGABGKK@Jul?$AA@  00000001800301c4     libucrt:nlsdata.obj
 0002:000021c8       ??_C@_03IFJFEIGA@Aug?$AA@  00000001800301c8     libucrt:nlsdata.obj
 0002:000021cc       ??_C@_03GGCAPAJC@Sep?$AA@  00000001800301cc     libucrt:nlsdata.obj
 0002:000021d0       ??_C@_03BMAOKBAD@Oct?$AA@  00000001800301d0     libucrt:nlsdata.obj
 0002:000021d4       ??_C@_03JPJOFNIA@Nov?$AA@  00000001800301d4     libucrt:nlsdata.obj
 0002:000021d8       ??_C@_03MKABNOCG@Dec?$AA@  00000001800301d8     libucrt:nlsdata.obj
 0002:000021e0       ??_C@_07CGJPFGJA@January?$AA@ 00000001800301e0     libucrt:nlsdata.obj
 0002:000021e8       ??_C@_08GNJGEPFN@February?$AA@ 00000001800301e8     libucrt:nlsdata.obj
 0002:000021f4       ??_C@_05HPCKOFNC@March?$AA@ 00000001800301f4     libucrt:nlsdata.obj
 0002:000021fc       ??_C@_05DMJDNLEJ@April?$AA@ 00000001800301fc     libucrt:nlsdata.obj
 0002:00002204       ??_C@_04CNLMGBGM@June?$AA@ 0000000180030204     libucrt:nlsdata.obj
 0002:0000220c       ??_C@_04MIEPOIFP@July?$AA@ 000000018003020c     libucrt:nlsdata.obj
 0002:00002214       ??_C@_06LBBHFDDG@August?$AA@ 0000000180030214     libucrt:nlsdata.obj
 0002:00002220       ??_C@_09BHHEALKD@September?$AA@ 0000000180030220     libucrt:nlsdata.obj
 0002:00002230       ??_C@_07JJNFCEND@October?$AA@ 0000000180030230     libucrt:nlsdata.obj
 0002:00002238       ??_C@_08HCHEGEOA@November?$AA@ 0000000180030238     libucrt:nlsdata.obj
 0002:00002248       ??_C@_08EDHMEBNP@December?$AA@ 0000000180030248     libucrt:nlsdata.obj
 0002:00002254       ??_C@_02DEDBPAFC@AM?$AA@   0000000180030254     libucrt:nlsdata.obj
 0002:00002258       ??_C@_02CJNFDJBF@PM?$AA@   0000000180030258     libucrt:nlsdata.obj
 0002:00002260       ??_C@_08BPBNCDIB@MM?1dd?1yy?$AA@ 0000000180030260     libucrt:nlsdata.obj
 0002:00002270       ??_C@_0BE@CKGJFCPC@dddd?0?5MMMM?5dd?0?5yyyy?$AA@ 0000000180030270     libucrt:nlsdata.obj
 0002:00002288       ??_C@_08JCCMCCIL@HH?3mm?3ss?$AA@ 0000000180030288     libucrt:nlsdata.obj
 0002:00002298       ??_C@_17MBGCMIPB@?$AAS?$AAu?$AAn?$AA?$AA@ 0000000180030298     libucrt:nlsdata.obj
 0002:000022a0       ??_C@_17KBOMKBF@?$AAM?$AAo?$AAn?$AA?$AA@ 00000001800302a0     libucrt:nlsdata.obj
 0002:000022a8       ??_C@_17BMKGEGOJ@?$AAT?$AAu?$AAe?$AA?$AA@ 00000001800302a8     libucrt:nlsdata.obj
 0002:000022b0       ??_C@_17CJEDCEPE@?$AAW?$AAe?$AAd?$AA?$AA@ 00000001800302b0     libucrt:nlsdata.obj
 0002:000022b8       ??_C@_17PDPHAADD@?$AAT?$AAh?$AAu?$AA?$AA@ 00000001800302b8     libucrt:nlsdata.obj
 0002:000022c0       ??_C@_17HFOLPPLP@?$AAF?$AAr?$AAi?$AA?$AA@ 00000001800302c0     libucrt:nlsdata.obj
 0002:000022c8       ??_C@_17GGIBDPIH@?$AAS?$AAa?$AAt?$AA?$AA@ 00000001800302c8     libucrt:nlsdata.obj
 0002:000022d0       ??_C@_1O@IHNHDHPB@?$AAS?$AAu?$AAn?$AAd?$AAa?$AAy?$AA?$AA@ 00000001800302d0     libucrt:nlsdata.obj
 0002:000022e0       ??_C@_1O@MMNBFLIA@?$AAM?$AAo?$AAn?$AAd?$AAa?$AAy?$AA?$AA@ 00000001800302e0     libucrt:nlsdata.obj
 0002:000022f0       ??_C@_1BA@ENFBFFEK@?$AAT?$AAu?$AAe?$AAs?$AAd?$AAa?$AAy?$AA?$AA@ 00000001800302f0     libucrt:nlsdata.obj
 0002:00002300       ??_C@_1BE@EBOGMDOH@?$AAW?$AAe?$AAd?$AAn?$AAe?$AAs?$AAd?$AAa?$AAy?$AA?$AA@ 0000000180030300     libucrt:nlsdata.obj
 0002:00002318       ??_C@_1BC@HHMNLIHE@?$AAT?$AAh?$AAu?$AAr?$AAs?$AAd?$AAa?$AAy?$AA?$AA@ 0000000180030318     libucrt:nlsdata.obj
 0002:00002330       ??_C@_1O@PDICJHAG@?$AAF?$AAr?$AAi?$AAd?$AAa?$AAy?$AA?$AA@ 0000000180030330     libucrt:nlsdata.obj
 0002:00002340       ??_C@_1BC@ENMNNPAJ@?$AAS?$AAa?$AAt?$AAu?$AAr?$AAd?$AAa?$AAy?$AA?$AA@ 0000000180030340     libucrt:nlsdata.obj
 0002:00002358       ??_C@_17DKNBKCHM@?$AAJ?$AAa?$AAn?$AA?$AA@ 0000000180030358     libucrt:nlsdata.obj
 0002:00002360       ??_C@_17LMDJEKJN@?$AAF?$AAe?$AAb?$AA?$AA@ 0000000180030360     libucrt:nlsdata.obj
 0002:00002368       ??_C@_17CKNLEDEC@?$AAM?$AAa?$AAr?$AA?$AA@ 0000000180030368     libucrt:nlsdata.obj
 0002:00002370       ??_C@_17LFPOIHDD@?$AAA?$AAp?$AAr?$AA?$AA@ 0000000180030370     libucrt:nlsdata.obj
 0002:00002378       ??_C@_17PNNKMEED@?$AAM?$AAa?$AAy?$AA?$AA@ 0000000180030378     libucrt:nlsdata.obj
 0002:00002380       ??_C@_17KCJGOCPB@?$AAJ?$AAu?$AAn?$AA?$AA@ 0000000180030380     libucrt:nlsdata.obj
 0002:00002388       ??_C@_17IJPCKHK@?$AAJ?$AAu?$AAl?$AA?$AA@ 0000000180030388     libucrt:nlsdata.obj
 0002:00002390       ??_C@_17ICPELBCN@?$AAA?$AAu?$AAg?$AA?$AA@ 0000000180030390     libucrt:nlsdata.obj
 0002:00002398       ??_C@_17HCHCOKMG@?$AAS?$AAe?$AAp?$AA?$AA@ 0000000180030398     libucrt:nlsdata.obj
 0002:000023a0       ??_C@_17FNLKOI@?$AAO?$AAc?$AAt?$AA?$AA@ 00000001800303a0     libucrt:nlsdata.obj
 0002:000023a8       ??_C@_17BBDMLCIG@?$AAN?$AAo?$AAv?$AA?$AA@ 00000001800303a8     libucrt:nlsdata.obj
 0002:000023b0       ??_C@_17EGKACKIF@?$AAD?$AAe?$AAc?$AA?$AA@ 00000001800303b0     libucrt:nlsdata.obj
 0002:000023b8       ??_C@_1BA@EFMEIEBA@?$AAJ?$AAa?$AAn?$AAu?$AAa?$AAr?$AAy?$AA?$AA@ 00000001800303b8     libucrt:nlsdata.obj
 0002:000023c8       ??_C@_1BC@JGDDFFAM@?$AAF?$AAe?$AAb?$AAr?$AAu?$AAa?$AAr?$AAy?$AA?$AA@ 00000001800303c8     libucrt:nlsdata.obj
 0002:000023e0       ??_C@_1M@IKEENEDF@?$AAM?$AAa?$AAr?$AAc?$AAh?$AA?$AA@ 00000001800303e0     libucrt:nlsdata.obj
 0002:000023f0       ??_C@_1M@GJNLMHFD@?$AAA?$AAp?$AAr?$AAi?$AAl?$AA?$AA@ 00000001800303f0     libucrt:nlsdata.obj
 0002:00002400       ??_C@_19EPFLPGAP@?$AAJ?$AAu?$AAn?$AAe?$AA?$AA@ 0000000180030400     libucrt:nlsdata.obj
 0002:00002410       ??_C@_19BIFMLPCD@?$AAJ?$AAu?$AAl?$AAy?$AA?$AA@ 0000000180030410     libucrt:nlsdata.obj
 0002:00002420       ??_C@_1O@PAHLKOAC@?$AAA?$AAu?$AAg?$AAu?$AAs?$AAt?$AA?$AA@ 0000000180030420     libucrt:nlsdata.obj
 0002:00002430       ??_C@_1BE@DKAAMBJL@?$AAS?$AAe?$AAp?$AAt?$AAe?$AAm?$AAb?$AAe?$AAr?$AA?$AA@ 0000000180030430     libucrt:nlsdata.obj
 0002:00002448       ??_C@_1BA@EPANDLNG@?$AAO?$AAc?$AAt?$AAo?$AAb?$AAe?$AAr?$AA?$AA@ 0000000180030448     libucrt:nlsdata.obj
 0002:00002458       ??_C@_1BC@BGLIFPF@?$AAN?$AAo?$AAv?$AAe?$AAm?$AAb?$AAe?$AAr?$AA?$AA@ 0000000180030458     libucrt:nlsdata.obj
 0002:00002470       ??_C@_1BC@FEMKIFH@?$AAD?$AAe?$AAc?$AAe?$AAm?$AAb?$AAe?$AAr?$AA?$AA@ 0000000180030470     libucrt:nlsdata.obj
 0002:00002484       ??_C@_15ODEHAHHF@?$AAA?$AAM?$AA?$AA@ 0000000180030484     libucrt:nlsdata.obj
 0002:0000248c       ??_C@_15CLMNNGEL@?$AAP?$AAM?$AA?$AA@ 000000018003048c     libucrt:nlsdata.obj
 0002:00002498       ??_C@_1BC@IEBCMHCM@?$AAM?$AAM?$AA?1?$AAd?$AAd?$AA?1?$AAy?$AAy?$AA?$AA@ 0000000180030498     libucrt:nlsdata.obj
 0002:000024b0       ??_C@_1CI@KNAKOEBC@?$AAd?$AAd?$AAd?$AAd?$AA?0?$AA?5?$AAM?$AAM?$AAM?$AAM?$AA?5?$AAd?$AAd?$AA?0?$AA?5?$AAy?$AAy?$AAy?$AAy?$AA?$AA@ 00000001800304b0     libucrt:nlsdata.obj
 0002:000024d8       ??_C@_1BC@GDGBMEMK@?$AAH?$AAH?$AA?3?$AAm?$AAm?$AA?3?$AAs?$AAs?$AA?$AA@ 00000001800304d8     libucrt:nlsdata.obj
 0002:000024f0       ??_C@_1M@BMHNFIME@?$AAe?$AAn?$AA?9?$AAU?$AAS?$AA?$AA@ 00000001800304f0     libucrt:nlsdata.obj
 0002:00002520       ??_C@_1M@HPNHIDJI@?$AAj?$AAa?$AA?9?$AAJ?$AAP?$AA?$AA@ 0000000180030520     libucrt:mbctype.obj
 0002:00002530       ??_C@_1M@BIBDDEMK@?$AAz?$AAh?$AA?9?$AAC?$AAN?$AA?$AA@ 0000000180030530     libucrt:mbctype.obj
 0002:00002540       ??_C@_1M@JLOOOEGK@?$AAk?$AAo?$AA?9?$AAK?$AAR?$AA?$AA@ 0000000180030540     libucrt:mbctype.obj
 0002:00002550       ??_C@_1M@CLNBBOPM@?$AAz?$AAh?$AA?9?$AAT?$AAW?$AA?$AA@ 0000000180030550     libucrt:mbctype.obj
 0002:00002560       __newctype                 0000000180030560     libucrt:ctype.obj
 0002:00002860       __newclmap                 0000000180030860     libucrt:ctype.obj
 0002:000029e0       __newcumap                 00000001800309e0     libucrt:ctype.obj
 0002:00002b60       _wctype                    0000000180030b60     libucrt:ctype.obj
 0002:00003bb0       ??_C@_15EMKDOKLE@?$AAa?$AAr?$AA?$AA@ 0000000180031bb0     libucrt:lcidtoname_downlevel.obj
 0002:00003bb8       ??_C@_15KNPADPLH@?$AAb?$AAg?$AA?$AA@ 0000000180031bb8     libucrt:lcidtoname_downlevel.obj
 0002:00003bc0       ??_C@_15EDMHLDMO@?$AAc?$AAa?$AA?$AA@ 0000000180031bc0     libucrt:lcidtoname_downlevel.obj
 0002:00003bc8       ??_C@_1O@BPEAJADD@?$AAz?$AAh?$AA?9?$AAC?$AAH?$AAS?$AA?$AA@ 0000000180031bc8     libucrt:lcidtoname_downlevel.obj
 0002:00003bd8       ??_C@_15LJNHCMNK@?$AAc?$AAs?$AA?$AA@ 0000000180031bd8     libucrt:lcidtoname_downlevel.obj
 0002:00003be0       ??_C@_15FOMCIDHG@?$AAd?$AAa?$AA?$AA@ 0000000180031be0     libucrt:lcidtoname_downlevel.obj
 0002:00003be8       ??_C@_15NBKABECB@?$AAd?$AAe?$AA?$AA@ 0000000180031be8     libucrt:lcidtoname_downlevel.obj
 0002:00003bf0       ??_C@_15GHPEIIAO@?$AAe?$AAl?$AA?$AA@ 0000000180031bf0     libucrt:lcidtoname_downlevel.obj
 0002:00003bf8       ??_C@_15MNPNEAIF@?$AAe?$AAn?$AA?$AA@ 0000000180031bf8     libucrt:lcidtoname_downlevel.obj
 0002:00003c00       ??_C@_15GPIOMPMH@?$AAe?$AAs?$AA?$AA@ 0000000180031c00     libucrt:lcidtoname_downlevel.obj
 0002:00003c08       ??_C@_15NGLOAKJC@?$AAf?$AAi?$AA?$AA@ 0000000180031c08     libucrt:lcidtoname_downlevel.obj
 0002:00003c10       ??_C@_15FBKGNKAM@?$AAf?$AAr?$AA?$AA@ 0000000180031c10     libucrt:lcidtoname_downlevel.obj
 0002:00003c18       ??_C@_15KGGCNEFK@?$AAh?$AAe?$AA?$AA@ 0000000180031c18     libucrt:lcidtoname_downlevel.obj
 0002:00003c20       ??_C@_15PGHLIDMF@?$AAh?$AAu?$AA?$AA@ 0000000180031c20     libucrt:lcidtoname_downlevel.obj
 0002:00003c28       ??_C@_15BIEMAPLM@?$AAi?$AAs?$AA?$AA@ 0000000180031c28     libucrt:lcidtoname_downlevel.obj
 0002:00003c30       ??_C@_15IFJLDHAF@?$AAi?$AAt?$AA?$AA@ 0000000180031c30     libucrt:lcidtoname_downlevel.obj
 0002:00003c38       ??_C@_15GEMIOCAG@?$AAj?$AAa?$AA?$AA@ 0000000180031c38     libucrt:lcidtoname_downlevel.obj
 0002:00003c40       ??_C@_15EPELEGJA@?$AAk?$AAo?$AA?$AA@ 0000000180031c40     libucrt:lcidtoname_downlevel.obj
 0002:00003c48       ??_C@_15NDDHIMN@?$AAn?$AAl?$AA?$AA@ 0000000180031c48     libucrt:lcidtoname_downlevel.obj
 0002:00003c50       ??_C@_15BPIGNHCD@?$AAn?$AAo?$AA?$AA@ 0000000180031c50     libucrt:lcidtoname_downlevel.obj
 0002:00003c58       ??_C@_15DEOPBLCG@?$AAp?$AAl?$AA?$AA@ 0000000180031c58     libucrt:lcidtoname_downlevel.obj
 0002:00003c60       ??_C@_15KBECGEFG@?$AAp?$AAt?$AA?$AA@ 0000000180031c60     libucrt:lcidtoname_downlevel.obj
 0002:00003c68       ??_C@_15GLJCBFMD@?$AAr?$AAo?$AA?$AA@ 0000000180031c68     libucrt:lcidtoname_downlevel.obj
 0002:00003c70       ??_C@_15FEDGKCDI@?$AAr?$AAu?$AA?$AA@ 0000000180031c70     libucrt:lcidtoname_downlevel.obj
 0002:00003c78       ??_C@_15GLKMLLHM@?$AAh?$AAr?$AA?$AA@ 0000000180031c78     libucrt:lcidtoname_downlevel.obj
 0002:00003c80       ??_C@_15CPKMFBDB@?$AAs?$AAk?$AA?$AA@ 0000000180031c80     libucrt:lcidtoname_downlevel.obj
 0002:00003c88       ??_C@_15BAAIOGMK@?$AAs?$AAq?$AA?$AA@ 0000000180031c88     libucrt:lcidtoname_downlevel.obj
 0002:00003c90       ??_C@_15INNPNOHD@?$AAs?$AAv?$AA?$AA@ 0000000180031c90     libucrt:lcidtoname_downlevel.obj
 0002:00003c98       ??_C@_15CABMMOGH@?$AAt?$AAh?$AA?$AA@ 0000000180031c98     libucrt:lcidtoname_downlevel.obj
 0002:00003ca0       ??_C@_15BPLIHJJM@?$AAt?$AAr?$AA?$AA@ 0000000180031ca0     libucrt:lcidtoname_downlevel.obj
 0002:00003ca8       ??_C@_15NEOEKKDJ@?$AAu?$AAr?$AA?$AA@ 0000000180031ca8     libucrt:lcidtoname_downlevel.obj
 0002:00003cb0       ??_C@_15NFICGAJK@?$AAi?$AAd?$AA?$AA@ 0000000180031cb0     libucrt:lcidtoname_downlevel.obj
 0002:00003cb8       ??_C@_15PJPFLCCM@?$AAu?$AAk?$AA?$AA@ 0000000180031cb8     libucrt:lcidtoname_downlevel.obj
 0002:00003cc0       ??_C@_15HPJPHDM@?$AAb?$AAe?$AA?$AA@ 0000000180031cc0     libucrt:lcidtoname_downlevel.obj
 0002:00003cc8       ??_C@_15LCHLGJII@?$AAs?$AAl?$AA?$AA@ 0000000180031cc8     libucrt:lcidtoname_downlevel.obj
 0002:00003cd0       ??_C@_15PCFJPHHO@?$AAe?$AAt?$AA?$AA@ 0000000180031cd0     libucrt:lcidtoname_downlevel.obj
 0002:00003cd8       ??_C@_15HPFPGODN@?$AAl?$AAv?$AA?$AA@ 0000000180031cd8     libucrt:lcidtoname_downlevel.obj
 0002:00003ce0       ??_C@_15NFFGKGLG@?$AAl?$AAt?$AA?$AA@ 0000000180031ce0     libucrt:lcidtoname_downlevel.obj
 0002:00003ce8       ??_C@_15BDAKCCHN@?$AAf?$AAa?$AA?$AA@ 0000000180031ce8     libucrt:lcidtoname_downlevel.obj
 0002:00003cf0       ??_C@_15NFGIAIAJ@?$AAv?$AAi?$AA?$AA@ 0000000180031cf0     libucrt:lcidtoname_downlevel.obj
 0002:00003cf8       ??_C@_15LMKNDMHN@?$AAh?$AAy?$AA?$AA@ 0000000180031cf8     libucrt:lcidtoname_downlevel.obj
 0002:00003d00       ??_C@_15IJBHMCFL@?$AAa?$AAz?$AA?$AA@ 0000000180031d00     libucrt:lcidtoname_downlevel.obj
 0002:00003d08       ??_C@_15EKOFJABL@?$AAe?$AAu?$AA?$AA@ 0000000180031d08     libucrt:lcidtoname_downlevel.obj
 0002:00003d10       ??_C@_15BGHADCNK@?$AAm?$AAk?$AA?$AA@ 0000000180031d10     libucrt:lcidtoname_downlevel.obj
 0002:00003d18       ??_C@_15JDNICKHM@?$AAa?$AAf?$AA?$AA@ 0000000180031d18     libucrt:lcidtoname_downlevel.obj
 0002:00003d20       ??_C@_15KPJEDBKD@?$AAk?$AAa?$AA?$AA@ 0000000180031d20     libucrt:lcidtoname_downlevel.obj
 0002:00003d28       ??_C@_15PDNFFFEO@?$AAf?$AAo?$AA?$AA@ 0000000180031d28     libucrt:lcidtoname_downlevel.obj
 0002:00003d30       ??_C@_15OMLEGLOC@?$AAh?$AAi?$AA?$AA@ 0000000180031d30     libucrt:lcidtoname_downlevel.obj
 0002:00003d38       ??_C@_15IDNNENKK@?$AAm?$AAs?$AA?$AA@ 0000000180031d38     libucrt:lcidtoname_downlevel.obj
 0002:00003d40       ??_C@_15MACJNBMH@?$AAk?$AAk?$AA?$AA@ 0000000180031d40     libucrt:lcidtoname_downlevel.obj
 0002:00003d48       ??_C@_15DKDJEOND@?$AAk?$AAy?$AA?$AA@ 0000000180031d48     libucrt:lcidtoname_downlevel.obj
 0002:00003d50       ??_C@_15DFGDLJBG@?$AAs?$AAw?$AA?$AA@ 0000000180031d50     libucrt:lcidtoname_downlevel.obj
 0002:00003d58       ??_C@_15BBFAICNG@?$AAu?$AAz?$AA?$AA@ 0000000180031d58     libucrt:lcidtoname_downlevel.obj
 0002:00003d60       ??_C@_15DKNDCGEA@?$AAt?$AAt?$AA?$AA@ 0000000180031d60     libucrt:lcidtoname_downlevel.obj
 0002:00003d68       ??_C@_15MGIFMDPL@?$AAp?$AAa?$AA?$AA@ 0000000180031d68     libucrt:lcidtoname_downlevel.obj
 0002:00003d70       ??_C@_15HCNDBBA@?$AAg?$AAu?$AA?$AA@ 0000000180031d70     libucrt:lcidtoname_downlevel.obj
 0002:00003d78       ??_C@_15FNBEIBON@?$AAt?$AAa?$AA?$AA@ 0000000180031d78     libucrt:lcidtoname_downlevel.obj
 0002:00003d80       ??_C@_15NCHGBGLK@?$AAt?$AAe?$AA?$AA@ 0000000180031d80     libucrt:lcidtoname_downlevel.obj
 0002:00003d88       ??_C@_15PHPHCBPF@?$AAk?$AAn?$AA?$AA@ 0000000180031d88     libucrt:lcidtoname_downlevel.obj
 0002:00003d90       ??_C@_15DLGBCKMP@?$AAm?$AAr?$AA?$AA@ 0000000180031d90     libucrt:lcidtoname_downlevel.obj
 0002:00003d98       ??_C@_15EABBLBFF@?$AAs?$AAa?$AA?$AA@ 0000000180031d98     libucrt:lcidtoname_downlevel.obj
 0002:00003da0       ??_C@_15CBKOMCOI@?$AAm?$AAn?$AA?$AA@ 0000000180031da0     libucrt:lcidtoname_downlevel.obj
 0002:00003da8       ??_C@_15CKDMCJAF@?$AAg?$AAl?$AA?$AA@ 0000000180031da8     libucrt:lcidtoname_downlevel.obj
 0002:00003db0       ??_C@_17CNJFBPG@?$AAk?$AAo?$AAk?$AA?$AA@ 0000000180031db0     libucrt:lcidtoname_downlevel.obj
 0002:00003db8       ??_C@_17FFBJICPL@?$AAs?$AAy?$AAr?$AA?$AA@ 0000000180031db8     libucrt:lcidtoname_downlevel.obj
 0002:00003dc0       ??_C@_17KPNDCPAF@?$AAd?$AAi?$AAv?$AA?$AA@ 0000000180031dc0     libucrt:lcidtoname_downlevel.obj
 0002:00003dc8       ??_C@_11LOCGONAA@?$AA?$AA@ 0000000180031dc8     libucrt:lcidtoname_downlevel.obj
 0002:00003dd0       ??_C@_1M@OKAHONE@?$AAa?$AAr?$AA?9?$AAS?$AAA?$AA?$AA@ 0000000180031dd0     libucrt:lcidtoname_downlevel.obj
 0002:00003de0       ??_C@_1M@FFFIGIGK@?$AAb?$AAg?$AA?9?$AAB?$AAG?$AA?$AA@ 0000000180031de0     libucrt:lcidtoname_downlevel.obj
 0002:00003df0       ??_C@_1M@BJNKEDC@?$AAc?$AAa?$AA?9?$AAE?$AAS?$AA?$AA@ 0000000180031df0     libucrt:lcidtoname_downlevel.obj
 0002:00003e00       ??_C@_1M@IJJHFJHA@?$AAc?$AAs?$AA?9?$AAC?$AAZ?$AA?$AA@ 0000000180031e00     libucrt:lcidtoname_downlevel.obj
 0002:00003e10       ??_C@_1M@CLPEOBGI@?$AAd?$AAa?$AA?9?$AAD?$AAK?$AA?$AA@ 0000000180031e10     libucrt:lcidtoname_downlevel.obj
 0002:00003e20       ??_C@_1M@MCMADGCB@?$AAd?$AAe?$AA?9?$AAD?$AAE?$AA?$AA@ 0000000180031e20     libucrt:lcidtoname_downlevel.obj
 0002:00003e30       ??_C@_1M@OOCKEMAM@?$AAe?$AAl?$AA?9?$AAG?$AAR?$AA?$AA@ 0000000180031e30     libucrt:lcidtoname_downlevel.obj
 0002:00003e40       ??_C@_1M@DDNJFGID@?$AAf?$AAi?$AA?9?$AAF?$AAI?$AA?$AA@ 0000000180031e40     libucrt:lcidtoname_downlevel.obj
 0002:00003e50       ??_C@_1M@GLIPPMAC@?$AAf?$AAr?$AA?9?$AAF?$AAR?$AA?$AA@ 0000000180031e50     libucrt:lcidtoname_downlevel.obj
 0002:00003e60       ??_C@_1M@GFMCHPE@?$AAh?$AAe?$AA?9?$AAI?$AAL?$AA?$AA@ 0000000180031e60     libucrt:lcidtoname_downlevel.obj
 0002:00003e70       ??_C@_1M@MHLPGNKM@?$AAh?$AAu?$AA?9?$AAH?$AAU?$AA?$AA@ 0000000180031e70     libucrt:lcidtoname_downlevel.obj
 0002:00003e80       ??_C@_1M@LPDDNNPN@?$AAi?$AAs?$AA?9?$AAI?$AAS?$AA?$AA@ 0000000180031e80     libucrt:lcidtoname_downlevel.obj
 0002:00003e90       ??_C@_1M@MADIPODN@?$AAi?$AAt?$AA?9?$AAI?$AAT?$AA?$AA@ 0000000180031e90     libucrt:lcidtoname_downlevel.obj
 0002:00003ea0       ??_C@_1M@IHBJJGG@?$AAn?$AAl?$AA?9?$AAN?$AAL?$AA?$AA@ 0000000180031ea0     libucrt:lcidtoname_downlevel.obj
 0002:00003eb0       ??_C@_1M@EANAGDL@?$AAn?$AAb?$AA?9?$AAN?$AAO?$AA?$AA@ 0000000180031eb0     libucrt:lcidtoname_downlevel.obj
 0002:00003ec0       ??_C@_1M@NEIEMEGP@?$AAp?$AAl?$AA?9?$AAP?$AAL?$AA?$AA@ 0000000180031ec0     libucrt:lcidtoname_downlevel.obj
 0002:00003ed0       ??_C@_1M@BOCFIGEP@?$AAp?$AAt?$AA?9?$AAB?$AAR?$AA?$AA@ 0000000180031ed0     libucrt:lcidtoname_downlevel.obj
 0002:00003ee0       ??_C@_1M@IMPFOPBG@?$AAr?$AAo?$AA?9?$AAR?$AAO?$AA?$AA@ 0000000180031ee0     libucrt:lcidtoname_downlevel.obj
 0002:00003ef0       ??_C@_1M@IDNNEJMM@?$AAr?$AAu?$AA?9?$AAR?$AAU?$AA?$AA@ 0000000180031ef0     libucrt:lcidtoname_downlevel.obj
 0002:00003f00       ??_C@_1M@LILEEOGM@?$AAh?$AAr?$AA?9?$AAH?$AAR?$AA?$AA@ 0000000180031f00     libucrt:lcidtoname_downlevel.obj
 0002:00003f10       ??_C@_1M@FKIFEHPB@?$AAs?$AAk?$AA?9?$AAS?$AAK?$AA?$AA@ 0000000180031f10     libucrt:lcidtoname_downlevel.obj
 0002:00003f20       ??_C@_1M@LJMAMNPJ@?$AAs?$AAq?$AA?9?$AAA?$AAL?$AA?$AA@ 0000000180031f20     libucrt:lcidtoname_downlevel.obj
 0002:00003f30       ??_C@_1M@GIAKDKJK@?$AAs?$AAv?$AA?9?$AAS?$AAE?$AA?$AA@ 0000000180031f30     libucrt:lcidtoname_downlevel.obj
 0002:00003f40       ??_C@_1M@MKJKIKCL@?$AAt?$AAh?$AA?9?$AAT?$AAH?$AA?$AA@ 0000000180031f40     libucrt:lcidtoname_downlevel.obj
 0002:00003f50       ??_C@_1M@MFLCCMPB@?$AAt?$AAr?$AA?9?$AAT?$AAR?$AA?$AA@ 0000000180031f50     libucrt:lcidtoname_downlevel.obj
 0002:00003f60       ??_C@_1M@OIJHDKJN@?$AAu?$AAr?$AA?9?$AAP?$AAK?$AA?$AA@ 0000000180031f60     libucrt:lcidtoname_downlevel.obj
 0002:00003f70       ??_C@_1M@LHIPCIEK@?$AAi?$AAd?$AA?9?$AAI?$AAD?$AA?$AA@ 0000000180031f70     libucrt:lcidtoname_downlevel.obj
 0002:00003f80       ??_C@_1M@MFMOBGI@?$AAu?$AAk?$AA?9?$AAU?$AAA?$AA?$AA@ 0000000180031f80     libucrt:lcidtoname_downlevel.obj
 0002:00003f90       ??_C@_1M@OBGLJIPL@?$AAb?$AAe?$AA?9?$AAB?$AAY?$AA?$AA@ 0000000180031f90     libucrt:lcidtoname_downlevel.obj
 0002:00003fa0       ??_C@_1M@BCFAJEAD@?$AAs?$AAl?$AA?9?$AAS?$AAI?$AA?$AA@ 0000000180031fa0     libucrt:lcidtoname_downlevel.obj
 0002:00003fb0       ??_C@_1M@FKFFEDDN@?$AAe?$AAt?$AA?9?$AAE?$AAE?$AA?$AA@ 0000000180031fb0     libucrt:lcidtoname_downlevel.obj
 0002:00003fc0       ??_C@_1M@KGKKAACI@?$AAl?$AAv?$AA?9?$AAL?$AAV?$AA?$AA@ 0000000180031fc0     libucrt:lcidtoname_downlevel.obj
 0002:00003fd0       ??_C@_1M@IFGBIJO@?$AAl?$AAt?$AA?9?$AAL?$AAT?$AA?$AA@ 0000000180031fd0     libucrt:lcidtoname_downlevel.obj
 0002:00003fe0       ??_C@_1M@FGEAHEDM@?$AAf?$AAa?$AA?9?$AAI?$AAR?$AA?$AA@ 0000000180031fe0     libucrt:lcidtoname_downlevel.obj
 0002:00003ff0       ??_C@_1M@KBMAIBFN@?$AAv?$AAi?$AA?9?$AAV?$AAN?$AA?$AA@ 0000000180031ff0     libucrt:lcidtoname_downlevel.obj
 0002:00004000       ??_C@_1M@GPCBKDJK@?$AAh?$AAy?$AA?9?$AAA?$AAM?$AA?$AA@ 0000000180032000     libucrt:lcidtoname_downlevel.obj
 0002:00004010       ??_C@_1BG@BECMDDJB@?$AAa?$AAz?$AA?9?$AAA?$AAZ?$AA?9?$AAL?$AAa?$AAt?$AAn?$AA?$AA@ 0000000180032010     libucrt:lcidtoname_downlevel.obj
 0002:00004028       ??_C@_1M@MAOFCAEA@?$AAe?$AAu?$AA?9?$AAE?$AAS?$AA?$AA@ 0000000180032028     libucrt:lcidtoname_downlevel.obj
 0002:00004038       ??_C@_1M@IGHABKPI@?$AAm?$AAk?$AA?9?$AAM?$AAK?$AA?$AA@ 0000000180032038     libucrt:lcidtoname_downlevel.obj
 0002:00004048       ??_C@_1M@IAIGNEJG@?$AAt?$AAn?$AA?9?$AAZ?$AAA?$AA?$AA@ 0000000180032048     libucrt:lcidtoname_downlevel.obj
 0002:00004058       ??_C@_1M@IIJCOJFA@?$AAx?$AAh?$AA?9?$AAZ?$AAA?$AA?$AA@ 0000000180032058     libucrt:lcidtoname_downlevel.obj
 0002:00004068       ??_C@_1M@LGPJHNJH@?$AAz?$AAu?$AA?9?$AAZ?$AAA?$AA?$AA@ 0000000180032068     libucrt:lcidtoname_downlevel.obj
 0002:00004078       ??_C@_1M@HOKAOIO@?$AAa?$AAf?$AA?9?$AAZ?$AAA?$AA?$AA@ 0000000180032078     libucrt:lcidtoname_downlevel.obj
 0002:00004088       ??_C@_1M@DPCLHLIE@?$AAk?$AAa?$AA?9?$AAG?$AAE?$AA?$AA@ 0000000180032088     libucrt:lcidtoname_downlevel.obj
 0002:00004098       ??_C@_1M@BLKMHJBI@?$AAf?$AAo?$AA?9?$AAF?$AAO?$AA?$AA@ 0000000180032098     libucrt:lcidtoname_downlevel.obj
 0002:000040a8       ??_C@_1M@LGGJAPPB@?$AAh?$AAi?$AA?9?$AAI?$AAN?$AA?$AA@ 00000001800320a8     libucrt:lcidtoname_downlevel.obj
 0002:000040b8       ??_C@_1M@FIKPIHFE@?$AAm?$AAt?$AA?9?$AAM?$AAT?$AA?$AA@ 00000001800320b8     libucrt:lcidtoname_downlevel.obj
 0002:000040c8       ??_C@_1M@HEGGPBFA@?$AAs?$AAe?$AA?9?$AAN?$AAO?$AA?$AA@ 00000001800320c8     libucrt:lcidtoname_downlevel.obj
 0002:000040d8       ??_C@_1M@EIBJEEPA@?$AAm?$AAs?$AA?9?$AAM?$AAY?$AA?$AA@ 00000001800320d8     libucrt:lcidtoname_downlevel.obj
 0002:000040e8       ??_C@_1M@FHLBGMPP@?$AAk?$AAk?$AA?9?$AAK?$AAZ?$AA?$AA@ 00000001800320e8     libucrt:lcidtoname_downlevel.obj
 0002:000040f8       ??_C@_1M@NGJJLCGI@?$AAk?$AAy?$AA?9?$AAK?$AAG?$AA?$AA@ 00000001800320f8     libucrt:lcidtoname_downlevel.obj
 0002:00004108       ??_C@_1M@GIENNBFC@?$AAs?$AAw?$AA?9?$AAK?$AAE?$AA?$AA@ 0000000180032108     libucrt:lcidtoname_downlevel.obj
 0002:00004118       ??_C@_1BG@NDGMJIMJ@?$AAu?$AAz?$AA?9?$AAU?$AAZ?$AA?9?$AAL?$AAa?$AAt?$AAn?$AA?$AA@ 0000000180032118     libucrt:lcidtoname_downlevel.obj
 0002:00004130       ??_C@_1M@IDCCIHBC@?$AAt?$AAt?$AA?9?$AAR?$AAU?$AA?$AA@ 0000000180032130     libucrt:lcidtoname_downlevel.obj
 0002:00004140       ??_C@_1M@LOICPMOJ@?$AAb?$AAn?$AA?9?$AAI?$AAN?$AA?$AA@ 0000000180032140     libucrt:lcidtoname_downlevel.obj
 0002:00004150       ??_C@_1M@KPKKNEAH@?$AAp?$AAa?$AA?9?$AAI?$AAN?$AA?$AA@ 0000000180032150     libucrt:lcidtoname_downlevel.obj
 0002:00004160       ??_C@_1M@PJGPPBOG@?$AAg?$AAu?$AA?9?$AAI?$AAN?$AA?$AA@ 0000000180032160     libucrt:lcidtoname_downlevel.obj
 0002:00004170       ??_C@_1M@KMKMOPHI@?$AAt?$AAa?$AA?9?$AAI?$AAN?$AA?$AA@ 0000000180032170     libucrt:lcidtoname_downlevel.obj
 0002:00004180       ??_C@_1M@KFEHEPAC@?$AAt?$AAe?$AA?9?$AAI?$AAN?$AA?$AA@ 0000000180032180     libucrt:lcidtoname_downlevel.obj
 0002:00004190       ??_C@_1M@CDCLMGHI@?$AAk?$AAn?$AA?9?$AAI?$AAN?$AA?$AA@ 0000000180032190     libucrt:lcidtoname_downlevel.obj
 0002:000041a0       ??_C@_1M@MIODLDKF@?$AAm?$AAl?$AA?9?$AAI?$AAN?$AA?$AA@ 00000001800321a0     libucrt:lcidtoname_downlevel.obj
 0002:000041b0       ??_C@_1M@PBIEACPO@?$AAm?$AAr?$AA?9?$AAI?$AAN?$AA?$AA@ 00000001800321b0     libucrt:lcidtoname_downlevel.obj
 0002:000041c0       ??_C@_1M@NIDEAGPH@?$AAs?$AAa?$AA?9?$AAI?$AAN?$AA?$AA@ 00000001800321c0     libucrt:lcidtoname_downlevel.obj
 0002:000041d0       ??_C@_1M@FHIHCBIO@?$AAm?$AAn?$AA?9?$AAM?$AAN?$AA?$AA@ 00000001800321d0     libucrt:lcidtoname_downlevel.obj
 0002:000041e0       ??_C@_1M@JAIJPENP@?$AAc?$AAy?$AA?9?$AAG?$AAB?$AA?$AA@ 00000001800321e0     libucrt:lcidtoname_downlevel.obj
 0002:000041f0       ??_C@_1M@PHGFBEPN@?$AAg?$AAl?$AA?9?$AAE?$AAS?$AA?$AA@ 00000001800321f0     libucrt:lcidtoname_downlevel.obj
 0002:00004200       ??_C@_1O@KPIPDNCP@?$AAk?$AAo?$AAk?$AA?9?$AAI?$AAN?$AA?$AA@ 0000000180032200     libucrt:lcidtoname_downlevel.obj
 0002:00004210       ??_C@_1O@KNHJLDJA@?$AAs?$AAy?$AAr?$AA?9?$AAS?$AAY?$AA?$AA@ 0000000180032210     libucrt:lcidtoname_downlevel.obj
 0002:00004220       ??_C@_1O@MKEKBLAH@?$AAd?$AAi?$AAv?$AA?9?$AAM?$AAV?$AA?$AA@ 0000000180032220     libucrt:lcidtoname_downlevel.obj
 0002:00004230       ??_C@_1O@OHDCKDDF@?$AAq?$AAu?$AAz?$AA?9?$AAB?$AAO?$AA?$AA@ 0000000180032230     libucrt:lcidtoname_downlevel.obj
 0002:00004240       ??_C@_1M@LEPJNLFD@?$AAn?$AAs?$AA?9?$AAZ?$AAA?$AA?$AA@ 0000000180032240     libucrt:lcidtoname_downlevel.obj
 0002:00004250       ??_C@_1M@OMLEIIJB@?$AAm?$AAi?$AA?9?$AAN?$AAZ?$AA?$AA@ 0000000180032250     libucrt:lcidtoname_downlevel.obj
 0002:00004260       ??_C@_1M@PMPEAILG@?$AAa?$AAr?$AA?9?$AAI?$AAQ?$AA?$AA@ 0000000180032260     libucrt:lcidtoname_downlevel.obj
 0002:00004270       ??_C@_1M@CNKPNOEE@?$AAd?$AAe?$AA?9?$AAC?$AAH?$AA?$AA@ 0000000180032270     libucrt:lcidtoname_downlevel.obj
 0002:00004280       ??_C@_1M@LKMGMLKO@?$AAe?$AAn?$AA?9?$AAG?$AAB?$AA?$AA@ 0000000180032280     libucrt:lcidtoname_downlevel.obj
 0002:00004290       ??_C@_1M@PGKJFFGL@?$AAe?$AAs?$AA?9?$AAM?$AAX?$AA?$AA@ 0000000180032290     libucrt:lcidtoname_downlevel.obj
 0002:000042a0       ??_C@_1M@DNNANBDC@?$AAf?$AAr?$AA?9?$AAB?$AAE?$AA?$AA@ 00000001800322a0     libucrt:lcidtoname_downlevel.obj
 0002:000042b0       ??_C@_1M@HLGMDFHM@?$AAi?$AAt?$AA?9?$AAC?$AAH?$AA?$AA@ 00000001800322b0     libucrt:lcidtoname_downlevel.obj
 0002:000042c0       ??_C@_1M@CLLBGJH@?$AAn?$AAl?$AA?9?$AAB?$AAE?$AA?$AA@ 00000001800322c0     libucrt:lcidtoname_downlevel.obj
 0002:000042d0       ??_C@_1M@BODBOGLF@?$AAn?$AAn?$AA?9?$AAN?$AAO?$AA?$AA@ 00000001800322d0     libucrt:lcidtoname_downlevel.obj
 0002:000042e0       ??_C@_1M@HFFAHKAD@?$AAp?$AAt?$AA?9?$AAP?$AAT?$AA?$AA@ 00000001800322e0     libucrt:lcidtoname_downlevel.obj
 0002:000042f0       ??_C@_1BG@LNOAKHIE@?$AAs?$AAr?$AA?9?$AAS?$AAP?$AA?9?$AAL?$AAa?$AAt?$AAn?$AA?$AA@ 00000001800322f0     libucrt:lcidtoname_downlevel.obj
 0002:00004308       ??_C@_1M@HBMHBGAK@?$AAs?$AAv?$AA?9?$AAF?$AAI?$AA?$AA@ 0000000180032308     libucrt:lcidtoname_downlevel.obj
 0002:00004318       ??_C@_1BG@DGCJGJBE@?$AAa?$AAz?$AA?9?$AAA?$AAZ?$AA?9?$AAC?$AAy?$AAr?$AAl?$AA?$AA@ 0000000180032318     libucrt:lcidtoname_downlevel.obj
 0002:00004330       ??_C@_1M@KEJDAAHB@?$AAs?$AAe?$AA?9?$AAS?$AAE?$AA?$AA@ 0000000180032330     libucrt:lcidtoname_downlevel.obj
 0002:00004340       ??_C@_1M@HEIBJJAD@?$AAm?$AAs?$AA?9?$AAB?$AAN?$AA?$AA@ 0000000180032340     libucrt:lcidtoname_downlevel.obj
 0002:00004350       ??_C@_1BG@PBGJMCEM@?$AAu?$AAz?$AA?9?$AAU?$AAZ?$AA?9?$AAC?$AAy?$AAr?$AAl?$AA?$AA@ 0000000180032350     libucrt:lcidtoname_downlevel.obj
 0002:00004368       ??_C@_1O@LAOBCMDF@?$AAq?$AAu?$AAz?$AA?9?$AAE?$AAC?$AA?$AA@ 0000000180032368     libucrt:lcidtoname_downlevel.obj
 0002:00004378       ??_C@_1M@POEEMAIO@?$AAa?$AAr?$AA?9?$AAE?$AAG?$AA?$AA@ 0000000180032378     libucrt:lcidtoname_downlevel.obj
 0002:00004388       ??_C@_1M@EFAKDEDL@?$AAz?$AAh?$AA?9?$AAH?$AAK?$AA?$AA@ 0000000180032388     libucrt:lcidtoname_downlevel.obj
 0002:00004398       ??_C@_1M@HKKIJHGI@?$AAd?$AAe?$AA?9?$AAA?$AAT?$AA?$AA@ 0000000180032398     libucrt:lcidtoname_downlevel.obj
 0002:000043a8       ??_C@_1M@KBFBEHJF@?$AAe?$AAn?$AA?9?$AAA?$AAU?$AA?$AA@ 00000001800323a8     libucrt:lcidtoname_downlevel.obj
 0002:000043b8       ??_C@_1M@MNPLFAAH@?$AAe?$AAs?$AA?9?$AAE?$AAS?$AA?$AA@ 00000001800323b8     libucrt:lcidtoname_downlevel.obj
 0002:000043c8       ??_C@_1M@HJOOJFMA@?$AAf?$AAr?$AA?9?$AAC?$AAA?$AA?$AA@ 00000001800323c8     libucrt:lcidtoname_downlevel.obj
 0002:000043d8       ??_C@_1BG@JPOFPNAB@?$AAs?$AAr?$AA?9?$AAS?$AAP?$AA?9?$AAC?$AAy?$AAr?$AAl?$AA?$AA@ 00000001800323d8     libucrt:lcidtoname_downlevel.obj
 0002:000043f0       ??_C@_1M@LNFOCMOB@?$AAs?$AAe?$AA?9?$AAF?$AAI?$AA?$AA@ 00000001800323f0     libucrt:lcidtoname_downlevel.obj
 0002:00004400       ??_C@_1O@MGJBOAMB@?$AAq?$AAu?$AAz?$AA?9?$AAP?$AAE?$AA?$AA@ 0000000180032400     libucrt:lcidtoname_downlevel.obj
 0002:00004410       ??_C@_1M@GJINLBOK@?$AAa?$AAr?$AA?9?$AAL?$AAY?$AA?$AA@ 0000000180032410     libucrt:lcidtoname_downlevel.obj
 0002:00004420       ??_C@_1M@GGMNHJNL@?$AAz?$AAh?$AA?9?$AAS?$AAG?$AA?$AA@ 0000000180032420     libucrt:lcidtoname_downlevel.obj
 0002:00004430       ??_C@_1M@HOIKODND@?$AAd?$AAe?$AA?9?$AAL?$AAU?$AA?$AA@ 0000000180032430     libucrt:lcidtoname_downlevel.obj
 0002:00004440       ??_C@_1M@DDOCCGFG@?$AAe?$AAn?$AA?9?$AAC?$AAA?$AA?$AA@ 0000000180032440     libucrt:lcidtoname_downlevel.obj
 0002:00004450       ??_C@_1M@BNOEMJLF@?$AAe?$AAs?$AA?9?$AAG?$AAT?$AA?$AA@ 0000000180032450     libucrt:lcidtoname_downlevel.obj
 0002:00004460       ??_C@_1M@EOGNKEK@?$AAf?$AAr?$AA?9?$AAC?$AAH?$AA?$AA@ 0000000180032460     libucrt:lcidtoname_downlevel.obj
 0002:00004470       ??_C@_1M@FLIDJFHL@?$AAh?$AAr?$AA?9?$AAB?$AAA?$AA?$AA@ 0000000180032470     libucrt:lcidtoname_downlevel.obj
 0002:00004480       ??_C@_1O@FMCELNAJ@?$AAs?$AAm?$AAj?$AA?9?$AAN?$AAO?$AA?$AA@ 0000000180032480     libucrt:lcidtoname_downlevel.obj
 0002:00004490       ??_C@_1M@JHGLJMGJ@?$AAa?$AAr?$AA?9?$AAD?$AAZ?$AA?$AA@ 0000000180032490     libucrt:lcidtoname_downlevel.obj
 0002:000044a0       ??_C@_1M@JKKFDCNP@?$AAz?$AAh?$AA?9?$AAM?$AAO?$AA?$AA@ 00000001800324a0     libucrt:lcidtoname_downlevel.obj
 0002:000044b0       ??_C@_1M@GEEFALPE@?$AAd?$AAe?$AA?9?$AAL?$AAI?$AA?$AA@ 00000001800324b0     libucrt:lcidtoname_downlevel.obj
 0002:000044c0       ??_C@_1M@IGEOFBG@?$AAe?$AAn?$AA?9?$AAN?$AAZ?$AA?$AA@ 00000001800324c0     libucrt:lcidtoname_downlevel.obj
 0002:000044d0       ??_C@_1M@KDBONEHP@?$AAe?$AAs?$AA?9?$AAC?$AAR?$AA?$AA@ 00000001800324d0     libucrt:lcidtoname_downlevel.obj
 0002:000044e0       ??_C@_1M@FHMDOHNN@?$AAf?$AAr?$AA?9?$AAL?$AAU?$AA?$AA@ 00000001800324e0     libucrt:lcidtoname_downlevel.obj
 0002:000044f0       ??_C@_1BG@NFKKMAFG@?$AAb?$AAs?$AA?9?$AAB?$AAA?$AA?9?$AAL?$AAa?$AAt?$AAn?$AA?$AA@ 00000001800324f0     libucrt:lcidtoname_downlevel.obj
 0002:00004508       ??_C@_1O@IMNBEMCI@?$AAs?$AAm?$AAj?$AA?9?$AAS?$AAE?$AA?$AA@ 0000000180032508     libucrt:lcidtoname_downlevel.obj
 0002:00004518       ??_C@_1M@DHHMBNDP@?$AAa?$AAr?$AA?9?$AAM?$AAA?$AA?$AA@ 0000000180032518     libucrt:lcidtoname_downlevel.obj
 0002:00004528       ??_C@_1M@BNBLJCGH@?$AAe?$AAn?$AA?9?$AAI?$AAE?$AA?$AA@ 0000000180032528     libucrt:lcidtoname_downlevel.obj
 0002:00004538       ??_C@_1M@GEPAFMDL@?$AAe?$AAs?$AA?9?$AAP?$AAA?$AA?$AA@ 0000000180032538     libucrt:lcidtoname_downlevel.obj
 0002:00004548       ??_C@_1M@OJONDMDL@?$AAf?$AAr?$AA?9?$AAM?$AAC?$AA?$AA@ 0000000180032548     libucrt:lcidtoname_downlevel.obj
 0002:00004558       ??_C@_1BG@OBCNFJB@?$AAs?$AAr?$AA?9?$AAB?$AAA?$AA?9?$AAL?$AAa?$AAt?$AAn?$AA?$AA@ 0000000180032558     libucrt:lcidtoname_downlevel.obj
 0002:00004570       ??_C@_1O@KEMEEGPO@?$AAs?$AAm?$AAa?$AA?9?$AAN?$AAO?$AA?$AA@ 0000000180032570     libucrt:lcidtoname_downlevel.obj
 0002:00004580       ??_C@_1M@ELMGFODK@?$AAa?$AAr?$AA?9?$AAT?$AAN?$AA?$AA@ 0000000180032580     libucrt:lcidtoname_downlevel.obj
 0002:00004590       ??_C@_1M@BHDLHFAF@?$AAe?$AAn?$AA?9?$AAZ?$AAA?$AA?$AA@ 0000000180032590     libucrt:lcidtoname_downlevel.obj
 0002:000045a0       ??_C@_1M@BMGIGLIF@?$AAe?$AAs?$AA?9?$AAD?$AAO?$AA?$AA@ 00000001800325a0     libucrt:lcidtoname_downlevel.obj
 0002:000045b0       ??_C@_1BG@CMBHIPBE@?$AAs?$AAr?$AA?9?$AAB?$AAA?$AA?9?$AAC?$AAy?$AAr?$AAl?$AA?$AA@ 00000001800325b0     libucrt:lcidtoname_downlevel.obj
 0002:000045c8       ??_C@_1O@HEDBLHNP@?$AAs?$AAm?$AAa?$AA?9?$AAS?$AAE?$AA?$AA@ 00000001800325c8     libucrt:lcidtoname_downlevel.obj
 0002:000045d8       ??_C@_1M@DAGCADIM@?$AAa?$AAr?$AA?9?$AAO?$AAM?$AA?$AA@ 00000001800325d8     libucrt:lcidtoname_downlevel.obj
 0002:000045e8       ??_C@_1M@FODLMICG@?$AAe?$AAn?$AA?9?$AAJ?$AAM?$AA?$AA@ 00000001800325e8     libucrt:lcidtoname_downlevel.obj
 0002:000045f8       ??_C@_1M@DNMLCIHB@?$AAe?$AAs?$AA?9?$AAV?$AAE?$AA?$AA@ 00000001800325f8     libucrt:lcidtoname_downlevel.obj
 0002:00004608       ??_C@_1O@EOKHMKJK@?$AAs?$AAm?$AAs?$AA?9?$AAF?$AAI?$AA?$AA@ 0000000180032608     libucrt:lcidtoname_downlevel.obj
 0002:00004618       ??_C@_1M@CAFJMKOF@?$AAa?$AAr?$AA?9?$AAY?$AAE?$AA?$AA@ 0000000180032618     libucrt:lcidtoname_downlevel.obj
 0002:00004628       ??_C@_1M@CBFHIJLI@?$AAe?$AAn?$AA?9?$AAC?$AAB?$AA?$AA@ 0000000180032628     libucrt:lcidtoname_downlevel.obj
 0002:00004638       ??_C@_1M@BGNFLDN@?$AAe?$AAs?$AA?9?$AAC?$AAO?$AA?$AA@ 0000000180032638     libucrt:lcidtoname_downlevel.obj
 0002:00004648       ??_C@_1O@JMPHMAMC@?$AAs?$AAm?$AAn?$AA?9?$AAF?$AAI?$AA?$AA@ 0000000180032648     libucrt:lcidtoname_downlevel.obj
 0002:00004658       ??_C@_1M@JLANABKE@?$AAa?$AAr?$AA?9?$AAS?$AAY?$AA?$AA@ 0000000180032658     libucrt:lcidtoname_downlevel.obj
 0002:00004668       ??_C@_1M@HPKGCFGN@?$AAe?$AAn?$AA?9?$AAB?$AAZ?$AA?$AA@ 0000000180032668     libucrt:lcidtoname_downlevel.obj
 0002:00004678       ??_C@_1M@OLJCMLGM@?$AAe?$AAs?$AA?9?$AAP?$AAE?$AA?$AA@ 0000000180032678     libucrt:lcidtoname_downlevel.obj
 0002:00004688       ??_C@_1M@MKKGFKLE@?$AAa?$AAr?$AA?9?$AAJ?$AAO?$AA?$AA@ 0000000180032688     libucrt:lcidtoname_downlevel.obj
 0002:00004698       ??_C@_1M@EKPGLDNI@?$AAe?$AAn?$AA?9?$AAT?$AAT?$AA?$AA@ 0000000180032698     libucrt:lcidtoname_downlevel.obj
 0002:000046a8       ??_C@_1M@OONGHFHE@?$AAe?$AAs?$AA?9?$AAA?$AAR?$AA?$AA@ 00000001800326a8     libucrt:lcidtoname_downlevel.obj
 0002:000046b8       ??_C@_1M@OOJFGBHE@?$AAa?$AAr?$AA?9?$AAL?$AAB?$AA?$AA@ 00000001800326b8     libucrt:lcidtoname_downlevel.obj
 0002:000046c8       ??_C@_1M@GCEJHNEG@?$AAe?$AAn?$AA?9?$AAZ?$AAW?$AA?$AA@ 00000001800326c8     libucrt:lcidtoname_downlevel.obj
 0002:000046d8       ??_C@_1M@JNOCAHJI@?$AAe?$AAs?$AA?9?$AAE?$AAC?$AA?$AA@ 00000001800326d8     libucrt:lcidtoname_downlevel.obj
 0002:000046e8       ??_C@_1M@JEFHPGGB@?$AAa?$AAr?$AA?9?$AAK?$AAW?$AA?$AA@ 00000001800326e8     libucrt:lcidtoname_downlevel.obj
 0002:000046f8       ??_C@_1M@MLKIBJOJ@?$AAe?$AAn?$AA?9?$AAP?$AAH?$AA?$AA@ 00000001800326f8     libucrt:lcidtoname_downlevel.obj
 0002:00004708       ??_C@_1M@BDNIPEND@?$AAe?$AAs?$AA?9?$AAC?$AAL?$AA?$AA@ 0000000180032708     libucrt:lcidtoname_downlevel.obj
 0002:00004718       ??_C@_1M@MPNMEKBD@?$AAa?$AAr?$AA?9?$AAA?$AAE?$AA?$AA@ 0000000180032718     libucrt:lcidtoname_downlevel.obj
 0002:00004728       ??_C@_1M@KBJALCPI@?$AAe?$AAs?$AA?9?$AAU?$AAY?$AA?$AA@ 0000000180032728     libucrt:lcidtoname_downlevel.obj
 0002:00004738       ??_C@_1M@LLCCOAGA@?$AAa?$AAr?$AA?9?$AAB?$AAH?$AA?$AA@ 0000000180032738     libucrt:lcidtoname_downlevel.obj
 0002:00004748       ??_C@_1M@PBFNCDEL@?$AAe?$AAs?$AA?9?$AAP?$AAY?$AA?$AA@ 0000000180032748     libucrt:lcidtoname_downlevel.obj
 0002:00004758       ??_C@_1M@EDGINPNP@?$AAa?$AAr?$AA?9?$AAQ?$AAA?$AA?$AA@ 0000000180032758     libucrt:lcidtoname_downlevel.obj
 0002:00004768       ??_C@_1M@MKDBIIJI@?$AAe?$AAs?$AA?9?$AAB?$AAO?$AA?$AA@ 0000000180032768     libucrt:lcidtoname_downlevel.obj
 0002:00004778       ??_C@_1M@CPKKEBLD@?$AAe?$AAs?$AA?9?$AAS?$AAV?$AA?$AA@ 0000000180032778     libucrt:lcidtoname_downlevel.obj
 0002:00004788       ??_C@_1M@NDBGMMJL@?$AAe?$AAs?$AA?9?$AAH?$AAN?$AA?$AA@ 0000000180032788     libucrt:lcidtoname_downlevel.obj
 0002:00004798       ??_C@_1M@JIJIBHDP@?$AAe?$AAs?$AA?9?$AAN?$AAI?$AA?$AA@ 0000000180032798     libucrt:lcidtoname_downlevel.obj
 0002:000047a8       ??_C@_1M@CGFMKEEK@?$AAe?$AAs?$AA?9?$AAP?$AAR?$AA?$AA@ 00000001800327a8     libucrt:lcidtoname_downlevel.obj
 0002:000047b8       ??_C@_1O@ICJHKIIK@?$AAz?$AAh?$AA?9?$AAC?$AAH?$AAT?$AA?$AA@ 00000001800327b8     libucrt:lcidtoname_downlevel.obj
 0002:000047c8       ??_C@_15CLNEJCE@?$AAs?$AAr?$AA?$AA@ 00000001800327c8     libucrt:lcidtoname_downlevel.obj
 0002:00005610       ??_C@_1M@KAHEKEIG@?$AAa?$AAf?$AA?9?$AAz?$AAa?$AA?$AA@ 0000000180033610     libucrt:lcidtoname_downlevel.obj
 0002:00005620       ??_C@_1M@GIECOABL@?$AAa?$AAr?$AA?9?$AAa?$AAe?$AA?$AA@ 0000000180033620     libucrt:lcidtoname_downlevel.obj
 0002:00005630       ??_C@_1M@BMLMEKGI@?$AAa?$AAr?$AA?9?$AAb?$AAh?$AA?$AA@ 0000000180033630     libucrt:lcidtoname_downlevel.obj
 0002:00005640       ??_C@_1M@DAPFDGGB@?$AAa?$AAr?$AA?9?$AAd?$AAz?$AA?$AA@ 0000000180033640     libucrt:lcidtoname_downlevel.obj
 0002:00005650       ??_C@_1M@FJNKGKIG@?$AAa?$AAr?$AA?9?$AAe?$AAg?$AA?$AA@ 0000000180033650     libucrt:lcidtoname_downlevel.obj
 0002:00005660       ??_C@_1M@FLGKKCLO@?$AAa?$AAr?$AA?9?$AAi?$AAq?$AA?$AA@ 0000000180033660     libucrt:lcidtoname_downlevel.obj
 0002:00005670       ??_C@_1M@GNDIPALM@?$AAa?$AAr?$AA?9?$AAj?$AAo?$AA?$AA@ 0000000180033670     libucrt:lcidtoname_downlevel.obj
 0002:00005680       ??_C@_1M@DDMJFMGJ@?$AAa?$AAr?$AA?9?$AAk?$AAw?$AA?$AA@ 0000000180033680     libucrt:lcidtoname_downlevel.obj
 0002:00005690       ??_C@_1M@EJALMLHM@?$AAa?$AAr?$AA?9?$AAl?$AAb?$AA?$AA@ 0000000180033690     libucrt:lcidtoname_downlevel.obj
 0002:000056a0       ??_C@_1M@MOBDBLOC@?$AAa?$AAr?$AA?9?$AAl?$AAy?$AA?$AA@ 00000001800336a0     libucrt:lcidtoname_downlevel.obj
 0002:000056b0       ??_C@_1M@JAOCLHDH@?$AAa?$AAr?$AA?9?$AAm?$AAa?$AA?$AA@ 00000001800336b0     libucrt:lcidtoname_downlevel.obj
 0002:000056c0       ??_C@_1M@JHPMKJIE@?$AAa?$AAr?$AA?9?$AAo?$AAm?$AA?$AA@ 00000001800336c0     libucrt:lcidtoname_downlevel.obj
 0002:000056d0       ??_C@_1M@OEPGHFNH@?$AAa?$AAr?$AA?9?$AAq?$AAa?$AA?$AA@ 00000001800336d0     libucrt:lcidtoname_downlevel.obj
 0002:000056e0       ??_C@_1M@KJDONENM@?$AAa?$AAr?$AA?9?$AAs?$AAa?$AA?$AA@ 00000001800336e0     libucrt:lcidtoname_downlevel.obj
 0002:000056f0       ??_C@_1M@DMJDKLKM@?$AAa?$AAr?$AA?9?$AAs?$AAy?$AA?$AA@ 00000001800336f0     libucrt:lcidtoname_downlevel.obj
 0002:00005700       ??_C@_1M@OMFIPEDC@?$AAa?$AAr?$AA?9?$AAt?$AAn?$AA?$AA@ 0000000180033700     libucrt:lcidtoname_downlevel.obj
 0002:00005710       ??_C@_1M@IHMHGAON@?$AAa?$AAr?$AA?9?$AAy?$AAe?$AA?$AA@ 0000000180033710     libucrt:lcidtoname_downlevel.obj
 0002:00005720       ??_C@_1BG@KDCPGJGB@?$AAa?$AAz?$AA?9?$AAa?$AAz?$AA?9?$AAc?$AAy?$AAr?$AAl?$AA?$AA@ 0000000180033720     libucrt:lcidtoname_downlevel.obj
 0002:00005738       ??_C@_1BG@IBCKDDOE@?$AAa?$AAz?$AA?9?$AAa?$AAz?$AA?9?$AAl?$AAa?$AAt?$AAn?$AA?$AA@ 0000000180033738     libucrt:lcidtoname_downlevel.obj
 0002:00005750       ??_C@_1M@EGPFDCPD@?$AAb?$AAe?$AA?9?$AAb?$AAy?$AA?$AA@ 0000000180033750     libucrt:lcidtoname_downlevel.obj
 0002:00005760       ??_C@_1M@PCMGMCGC@?$AAb?$AAg?$AA?9?$AAb?$AAg?$AA?$AA@ 0000000180033760     libucrt:lcidtoname_downlevel.obj
 0002:00005770       ??_C@_1M@BJBMFGOB@?$AAb?$AAn?$AA?9?$AAi?$AAn?$AA?$AA@ 0000000180033770     libucrt:lcidtoname_downlevel.obj
 0002:00005780       ??_C@_1BG@EAKMMACD@?$AAb?$AAs?$AA?9?$AAb?$AAa?$AA?9?$AAl?$AAa?$AAt?$AAn?$AA?$AA@ 0000000180033780     libucrt:lcidtoname_downlevel.obj
 0002:00005798       ??_C@_1M@KGADAODK@?$AAc?$AAa?$AA?9?$AAe?$AAs?$AA?$AA@ 0000000180033798     libucrt:lcidtoname_downlevel.obj
 0002:000057a8       ??_C@_1M@COAJPDHI@?$AAc?$AAs?$AA?9?$AAc?$AAz?$AA?$AA@ 00000001800337a8     libucrt:lcidtoname_downlevel.obj
 0002:000057b8       ??_C@_1M@DHBHFONH@?$AAc?$AAy?$AA?9?$AAg?$AAb?$AA?$AA@ 00000001800337b8     libucrt:lcidtoname_downlevel.obj
 0002:000057c8       ??_C@_1M@IMGKELGA@?$AAd?$AAa?$AA?9?$AAd?$AAk?$AA?$AA@ 00000001800337c8     libucrt:lcidtoname_downlevel.obj
 0002:000057d8       ??_C@_1M@NNDGDNGA@?$AAd?$AAe?$AA?9?$AAa?$AAt?$AA?$AA@ 00000001800337d8     libucrt:lcidtoname_downlevel.obj
 0002:000057e8       ??_C@_1M@IKDBHEEM@?$AAd?$AAe?$AA?9?$AAc?$AAh?$AA?$AA@ 00000001800337e8     libucrt:lcidtoname_downlevel.obj
 0002:000057f8       ??_C@_1M@GFFOJMCJ@?$AAd?$AAe?$AA?9?$AAd?$AAe?$AA?$AA@ 00000001800337f8     libucrt:lcidtoname_downlevel.obj
 0002:00005808       ??_C@_1M@MDNLKBPM@?$AAd?$AAe?$AA?9?$AAl?$AAi?$AA?$AA@ 0000000180033808     libucrt:lcidtoname_downlevel.obj
 0002:00005818       ??_C@_1M@NJBEEJNL@?$AAd?$AAe?$AA?9?$AAl?$AAu?$AA?$AA@ 0000000180033818     libucrt:lcidtoname_downlevel.obj
 0002:00005828       ??_C@_1O@GNNELBAP@?$AAd?$AAi?$AAv?$AA?9?$AAm?$AAv?$AA?$AA@ 0000000180033828     libucrt:lcidtoname_downlevel.obj
 0002:00005838       ??_C@_1M@EJLEOGAE@?$AAe?$AAl?$AA?9?$AAg?$AAr?$AA?$AA@ 0000000180033838     libucrt:lcidtoname_downlevel.obj
 0002:00005848       ??_C@_1M@GMPONJN@?$AAe?$AAn?$AA?9?$AAa?$AAu?$AA?$AA@ 0000000180033848     libucrt:lcidtoname_downlevel.obj
 0002:00005858       ??_C@_1M@NIDIIPGF@?$AAe?$AAn?$AA?9?$AAb?$AAz?$AA?$AA@ 0000000180033858     libucrt:lcidtoname_downlevel.obj
 0002:00005868       ??_C@_1M@JEHMIMFO@?$AAe?$AAn?$AA?9?$AAc?$AAa?$AA?$AA@ 0000000180033868     libucrt:lcidtoname_downlevel.obj
 0002:00005878       ??_C@_1M@IGMJCDLA@?$AAe?$AAn?$AA?9?$AAc?$AAb?$AA?$AA@ 0000000180033878     libucrt:lcidtoname_downlevel.obj
 0002:00005888       ??_C@_1M@BNFIGBKG@?$AAe?$AAn?$AA?9?$AAg?$AAb?$AA?$AA@ 0000000180033888     libucrt:lcidtoname_downlevel.obj
 0002:00005898       ??_C@_1M@LKIFDIGP@?$AAe?$AAn?$AA?9?$AAi?$AAe?$AA?$AA@ 0000000180033898     libucrt:lcidtoname_downlevel.obj
 0002:000058a8       ??_C@_1M@PJKFGCCO@?$AAe?$AAn?$AA?9?$AAj?$AAm?$AA?$AA@ 00000001800338a8     libucrt:lcidtoname_downlevel.obj
 0002:000058b8       ??_C@_1M@KPPKEPBO@?$AAe?$AAn?$AA?9?$AAn?$AAz?$AA?$AA@ 00000001800338b8     libucrt:lcidtoname_downlevel.obj
 0002:000058c8       ??_C@_1M@GMDGLDOB@?$AAe?$AAn?$AA?9?$AAp?$AAh?$AA?$AA@ 00000001800338c8     libucrt:lcidtoname_downlevel.obj
 0002:000058d8       ??_C@_1M@ONGIBJNA@?$AAe?$AAn?$AA?9?$AAt?$AAt?$AA?$AA@ 00000001800338d8     libucrt:lcidtoname_downlevel.obj
 0002:000058e8       ??_C@_1M@LLODPCMM@?$AAe?$AAn?$AA?9?$AAu?$AAs?$AA?$AA@ 00000001800338e8     libucrt:lcidtoname_downlevel.obj
 0002:000058f8       ??_C@_1M@LAKFNPAN@?$AAe?$AAn?$AA?9?$AAz?$AAa?$AA?$AA@ 00000001800338f8     libucrt:lcidtoname_downlevel.obj
 0002:00005908       ??_C@_1M@MFNHNHEO@?$AAe?$AAn?$AA?9?$AAz?$AAw?$AA?$AA@ 0000000180033908     libucrt:lcidtoname_downlevel.obj
 0002:00005918       ??_C@_1M@EJEINPHM@?$AAe?$AAs?$AA?9?$AAa?$AAr?$AA?$AA@ 0000000180033918     libucrt:lcidtoname_downlevel.obj
 0002:00005928       ??_C@_1M@GNKPCCJA@?$AAe?$AAs?$AA?9?$AAb?$AAo?$AA?$AA@ 0000000180033928     libucrt:lcidtoname_downlevel.obj
 0002:00005938       ??_C@_1M@LEEGFONL@?$AAe?$AAs?$AA?9?$AAc?$AAl?$AA?$AA@ 0000000180033938     libucrt:lcidtoname_downlevel.obj
 0002:00005948       ??_C@_1M@KGPDPBDF@?$AAe?$AAs?$AA?9?$AAc?$AAo?$AA?$AA@ 0000000180033948     libucrt:lcidtoname_downlevel.obj
 0002:00005958       ??_C@_1M@EIAHOHH@?$AAe?$AAs?$AA?9?$AAc?$AAr?$AA?$AA@ 0000000180033958     libucrt:lcidtoname_downlevel.obj
 0002:00005968       ??_C@_1M@LLPGMBIN@?$AAe?$AAs?$AA?9?$AAd?$AAo?$AA?$AA@ 0000000180033968     libucrt:lcidtoname_downlevel.obj
 0002:00005978       ??_C@_1M@DKHMKNJA@?$AAe?$AAs?$AA?9?$AAe?$AAc?$AA?$AA@ 0000000180033978     libucrt:lcidtoname_downlevel.obj
 0002:00005988       ??_C@_1M@GKGFPKAP@?$AAe?$AAs?$AA?9?$AAe?$AAs?$AA?$AA@ 0000000180033988     libucrt:lcidtoname_downlevel.obj
 0002:00005998       ??_C@_1M@LKHKGDLN@?$AAe?$AAs?$AA?9?$AAg?$AAt?$AA?$AA@ 0000000180033998     libucrt:lcidtoname_downlevel.obj
 0002:000059a8       ??_C@_1M@HEIIGGJD@?$AAe?$AAs?$AA?9?$AAh?$AAn?$AA?$AA@ 00000001800339a8     libucrt:lcidtoname_downlevel.obj
 0002:000059b8       ??_C@_1M@FBDHPPGD@?$AAe?$AAs?$AA?9?$AAm?$AAx?$AA?$AA@ 00000001800339b8     libucrt:lcidtoname_downlevel.obj
 0002:000059c8       ??_C@_1M@DPAGLNDH@?$AAe?$AAs?$AA?9?$AAn?$AAi?$AA?$AA@ 00000001800339c8     libucrt:lcidtoname_downlevel.obj
 0002:000059d8       ??_C@_1M@MDGOPGDD@?$AAe?$AAs?$AA?9?$AAp?$AAa?$AA?$AA@ 00000001800339d8     libucrt:lcidtoname_downlevel.obj
 0002:000059e8       ??_C@_1M@EMAMGBGE@?$AAe?$AAs?$AA?9?$AAp?$AAe?$AA?$AA@ 00000001800339e8     libucrt:lcidtoname_downlevel.obj
 0002:000059f8       ??_C@_1M@IBMCAOEC@?$AAe?$AAs?$AA?9?$AAp?$AAr?$AA?$AA@ 00000001800339f8     libucrt:lcidtoname_downlevel.obj
 0002:00005a08       ??_C@_1M@FGMDIJED@?$AAe?$AAs?$AA?9?$AAp?$AAy?$AA?$AA@ 0000000180033a08     libucrt:lcidtoname_downlevel.obj
 0002:00005a18       ??_C@_1M@IIDEOLLL@?$AAe?$AAs?$AA?9?$AAs?$AAv?$AA?$AA@ 0000000180033a18     libucrt:lcidtoname_downlevel.obj
 0002:00005a28       ??_C@_1M@GAOBIPA@?$AAe?$AAs?$AA?9?$AAu?$AAy?$AA?$AA@ 0000000180033a28     libucrt:lcidtoname_downlevel.obj
 0002:00005a38       ??_C@_1M@JKFFICHJ@?$AAe?$AAs?$AA?9?$AAv?$AAe?$AA?$AA@ 0000000180033a38     libucrt:lcidtoname_downlevel.obj
 0002:00005a48       ??_C@_1M@PNMLOJDF@?$AAe?$AAt?$AA?9?$AAe?$AAe?$AA?$AA@ 0000000180033a48     libucrt:lcidtoname_downlevel.obj
 0002:00005a58       ??_C@_1M@GHHLIKEI@?$AAe?$AAu?$AA?9?$AAe?$AAs?$AA?$AA@ 0000000180033a58     libucrt:lcidtoname_downlevel.obj
 0002:00005a68       ??_C@_1M@PBNONODE@?$AAf?$AAa?$AA?9?$AAi?$AAr?$AA?$AA@ 0000000180033a68     libucrt:lcidtoname_downlevel.obj
 0002:00005a78       ??_C@_1M@JEEHPMIL@?$AAf?$AAi?$AA?9?$AAf?$AAi?$AA?$AA@ 0000000180033a78     libucrt:lcidtoname_downlevel.obj
 0002:00005a88       ??_C@_1M@LMDCNDBA@?$AAf?$AAo?$AA?9?$AAf?$AAo?$AA?$AA@ 0000000180033a88     libucrt:lcidtoname_downlevel.obj
 0002:00005a98       ??_C@_1M@JKEOHLDK@?$AAf?$AAr?$AA?9?$AAb?$AAe?$AA?$AA@ 0000000180033a98     libucrt:lcidtoname_downlevel.obj
 0002:00005aa8       ??_C@_1M@NOHADPMI@?$AAf?$AAr?$AA?9?$AAc?$AAa?$AA?$AA@ 0000000180033aa8     libucrt:lcidtoname_downlevel.obj
 0002:00005ab8       ??_C@_1M@KDHIHAEC@?$AAf?$AAr?$AA?9?$AAc?$AAh?$AA?$AA@ 0000000180033ab8     libucrt:lcidtoname_downlevel.obj
 0002:00005ac8       ??_C@_1M@MMBBFGAK@?$AAf?$AAr?$AA?9?$AAf?$AAr?$AA?$AA@ 0000000180033ac8     libucrt:lcidtoname_downlevel.obj
 0002:00005ad8       ??_C@_1M@PAFNENNF@?$AAf?$AAr?$AA?9?$AAl?$AAu?$AA?$AA@ 0000000180033ad8     libucrt:lcidtoname_downlevel.obj
 0002:00005ae8       ??_C@_1M@EOHDJGDD@?$AAf?$AAr?$AA?9?$AAm?$AAc?$AA?$AA@ 0000000180033ae8     libucrt:lcidtoname_downlevel.obj
 0002:00005af8       ??_C@_1M@FAPLLOPF@?$AAg?$AAl?$AA?9?$AAe?$AAs?$AA?$AA@ 0000000180033af8     libucrt:lcidtoname_downlevel.obj
 0002:00005b08       ??_C@_1M@FOPBFLOO@?$AAg?$AAu?$AA?9?$AAi?$AAn?$AA?$AA@ 0000000180033b08     libucrt:lcidtoname_downlevel.obj
 0002:00005b18       ??_C@_1M@KBMCINPM@?$AAh?$AAe?$AA?9?$AAi?$AAl?$AA?$AA@ 0000000180033b18     libucrt:lcidtoname_downlevel.obj
 0002:00005b28       ??_C@_1M@BBPHKFPJ@?$AAh?$AAi?$AA?9?$AAi?$AAn?$AA?$AA@ 0000000180033b28     libucrt:lcidtoname_downlevel.obj
 0002:00005b38       ??_C@_1M@PMBNDPHD@?$AAh?$AAr?$AA?9?$AAb?$AAa?$AA?$AA@ 0000000180033b38     libucrt:lcidtoname_downlevel.obj
 0002:00005b48       ??_C@_1M@BPCKOEGE@?$AAh?$AAr?$AA?9?$AAh?$AAr?$AA?$AA@ 0000000180033b48     libucrt:lcidtoname_downlevel.obj
 0002:00005b58       ??_C@_1M@GACBMHKE@?$AAh?$AAu?$AA?9?$AAh?$AAu?$AA?$AA@ 0000000180033b58     libucrt:lcidtoname_downlevel.obj
 0002:00005b68       ??_C@_1M@MILPAJJC@?$AAh?$AAy?$AA?9?$AAa?$AAm?$AA?$AA@ 0000000180033b68     libucrt:lcidtoname_downlevel.obj
 0002:00005b78       ??_C@_1M@BABBICEC@?$AAi?$AAd?$AA?9?$AAi?$AAd?$AA?$AA@ 0000000180033b78     libucrt:lcidtoname_downlevel.obj
 0002:00005b88       ??_C@_1M@BIKNHHPF@?$AAi?$AAs?$AA?9?$AAi?$AAs?$AA?$AA@ 0000000180033b88     libucrt:lcidtoname_downlevel.obj
 0002:00005b98       ??_C@_1M@NMPCJPHE@?$AAi?$AAt?$AA?9?$AAc?$AAh?$AA?$AA@ 0000000180033b98     libucrt:lcidtoname_downlevel.obj
 0002:00005ba8       ??_C@_1M@GHKGFEDF@?$AAi?$AAt?$AA?9?$AAi?$AAt?$AA?$AA@ 0000000180033ba8     libucrt:lcidtoname_downlevel.obj
 0002:00005bb8       ??_C@_1M@NIEJCJJA@?$AAj?$AAa?$AA?9?$AAj?$AAp?$AA?$AA@ 0000000180033bb8     libucrt:lcidtoname_downlevel.obj
 0002:00005bc8       ??_C@_1M@JILFNBIM@?$AAk?$AAa?$AA?9?$AAg?$AAe?$AA?$AA@ 0000000180033bc8     libucrt:lcidtoname_downlevel.obj
 0002:00005bd8       ??_C@_1M@PACPMGPH@?$AAk?$AAk?$AA?9?$AAk?$AAz?$AA?$AA@ 0000000180033bd8     libucrt:lcidtoname_downlevel.obj
 0002:00005be8       ??_C@_1M@IELFGMHA@?$AAk?$AAn?$AA?9?$AAi?$AAn?$AA?$AA@ 0000000180033be8     libucrt:lcidtoname_downlevel.obj
 0002:00005bf8       ??_C@_1O@IBBJHCH@?$AAk?$AAo?$AAk?$AA?9?$AAi?$AAn?$AA?$AA@ 0000000180033bf8     libucrt:lcidtoname_downlevel.obj
 0002:00005c08       ??_C@_1M@DMHAEOGC@?$AAk?$AAo?$AA?9?$AAk?$AAr?$AA?$AA@ 0000000180033c08     libucrt:lcidtoname_downlevel.obj
 0002:00005c18       ??_C@_1M@HBAHBIGA@?$AAk?$AAy?$AA?9?$AAk?$AAg?$AA?$AA@ 0000000180033c18     libucrt:lcidtoname_downlevel.obj
 0002:00005c28       ??_C@_1M@KPMILCJG@?$AAl?$AAt?$AA?9?$AAl?$AAt?$AA?$AA@ 0000000180033c28     libucrt:lcidtoname_downlevel.obj
 0002:00005c38       ??_C@_1M@BDEKKCA@?$AAl?$AAv?$AA?9?$AAl?$AAv?$AA?$AA@ 0000000180033c38     libucrt:lcidtoname_downlevel.obj
 0002:00005c48       ??_C@_1M@ELCKCCJJ@?$AAm?$AAi?$AA?9?$AAn?$AAz?$AA?$AA@ 0000000180033c48     libucrt:lcidtoname_downlevel.obj
 0002:00005c58       ??_C@_1M@CBOOLAPA@?$AAm?$AAk?$AA?9?$AAm?$AAk?$AA?$AA@ 0000000180033c58     libucrt:lcidtoname_downlevel.obj
 0002:00005c68       ??_C@_1M@GPHNBJKN@?$AAm?$AAl?$AA?9?$AAi?$AAn?$AA?$AA@ 0000000180033c68     libucrt:lcidtoname_downlevel.obj
 0002:00005c78       ??_C@_1M@PABJILIG@?$AAm?$AAn?$AA?9?$AAm?$AAn?$AA?$AA@ 0000000180033c78     libucrt:lcidtoname_downlevel.obj
 0002:00005c88       ??_C@_1M@FGBKKIPG@?$AAm?$AAr?$AA?9?$AAi?$AAn?$AA?$AA@ 0000000180033c88     libucrt:lcidtoname_downlevel.obj
 0002:00005c98       ??_C@_1M@NDBPDDAL@?$AAm?$AAs?$AA?9?$AAb?$AAn?$AA?$AA@ 0000000180033c98     libucrt:lcidtoname_downlevel.obj
 0002:00005ca8       ??_C@_1M@OPIHOOPI@?$AAm?$AAs?$AA?9?$AAm?$AAy?$AA?$AA@ 0000000180033ca8     libucrt:lcidtoname_downlevel.obj
 0002:00005cb8       ??_C@_1M@PPDBCNFM@?$AAm?$AAt?$AA?9?$AAm?$AAt?$AA?$AA@ 0000000180033cb8     libucrt:lcidtoname_downlevel.obj
 0002:00005cc8       ??_C@_1M@KDJDKMDD@?$AAn?$AAb?$AA?9?$AAn?$AAo?$AA?$AA@ 0000000180033cc8     libucrt:lcidtoname_downlevel.obj
 0002:00005cd8       ??_C@_1M@KFCFLMJP@?$AAn?$AAl?$AA?9?$AAb?$AAe?$AA?$AA@ 0000000180033cd8     libucrt:lcidtoname_downlevel.obj
 0002:00005ce8       ??_C@_1M@KPOPDDGO@?$AAn?$AAl?$AA?9?$AAn?$AAl?$AA?$AA@ 0000000180033ce8     libucrt:lcidtoname_downlevel.obj
 0002:00005cf8       ??_C@_1M@LJKPEMLN@?$AAn?$AAn?$AA?9?$AAn?$AAo?$AA?$AA@ 0000000180033cf8     libucrt:lcidtoname_downlevel.obj
 0002:00005d08       ??_C@_1M@BDGHHBFL@?$AAn?$AAs?$AA?9?$AAz?$AAa?$AA?$AA@ 0000000180033d08     libucrt:lcidtoname_downlevel.obj
 0002:00005d18       ??_C@_1M@IDEHOAP@?$AAp?$AAa?$AA?9?$AAi?$AAn?$AA?$AA@ 0000000180033d18     libucrt:lcidtoname_downlevel.obj
 0002:00005d28       ??_C@_1M@HDBKGOGH@?$AAp?$AAl?$AA?9?$AAp?$AAl?$AA?$AA@ 0000000180033d28     libucrt:lcidtoname_downlevel.obj
 0002:00005d38       ??_C@_1M@LJLLCMEH@?$AAp?$AAt?$AA?9?$AAb?$AAr?$AA?$AA@ 0000000180033d38     libucrt:lcidtoname_downlevel.obj
 0002:00005d48       ??_C@_1M@NCMONAAL@?$AAp?$AAt?$AA?9?$AAp?$AAt?$AA?$AA@ 0000000180033d48     libucrt:lcidtoname_downlevel.obj
 0002:00005d58       ??_C@_1O@EAKMAJDN@?$AAq?$AAu?$AAz?$AA?9?$AAb?$AAo?$AA?$AA@ 0000000180033d58     libucrt:lcidtoname_downlevel.obj
 0002:00005d68       ??_C@_1O@BHHPIGDN@?$AAq?$AAu?$AAz?$AA?9?$AAe?$AAc?$AA?$AA@ 0000000180033d68     libucrt:lcidtoname_downlevel.obj
 0002:00005d78       ??_C@_1O@GBAPEKMJ@?$AAq?$AAu?$AAz?$AA?9?$AAp?$AAe?$AA?$AA@ 0000000180033d78     libucrt:lcidtoname_downlevel.obj
 0002:00005d88       ??_C@_1M@CLGLEFBO@?$AAr?$AAo?$AA?9?$AAr?$AAo?$AA?$AA@ 0000000180033d88     libucrt:lcidtoname_downlevel.obj
 0002:00005d98       ??_C@_1M@CEEDODME@?$AAr?$AAu?$AA?9?$AAr?$AAu?$AA?$AA@ 0000000180033d98     libucrt:lcidtoname_downlevel.obj
 0002:00005da8       ??_C@_1M@HPKKKMPP@?$AAs?$AAa?$AA?9?$AAi?$AAn?$AA?$AA@ 0000000180033da8     libucrt:lcidtoname_downlevel.obj
 0002:00005db8       ??_C@_1M@BKMAIGOJ@?$AAs?$AAe?$AA?9?$AAf?$AAi?$AA?$AA@ 0000000180033db8     libucrt:lcidtoname_downlevel.obj
 0002:00005dc8       ??_C@_1M@NDPIFLFI@?$AAs?$AAe?$AA?9?$AAn?$AAo?$AA?$AA@ 0000000180033dc8     libucrt:lcidtoname_downlevel.obj
 0002:00005dd8       ??_C@_1M@DANKKHJ@?$AAs?$AAe?$AA?9?$AAs?$AAe?$AA?$AA@ 0000000180033dd8     libucrt:lcidtoname_downlevel.obj
 0002:00005de8       ??_C@_1M@PNBLONPJ@?$AAs?$AAk?$AA?9?$AAs?$AAk?$AA?$AA@ 0000000180033de8     libucrt:lcidtoname_downlevel.obj
 0002:00005df8       ??_C@_1M@LFMODOAL@?$AAs?$AAl?$AA?9?$AAs?$AAi?$AA?$AA@ 0000000180033df8     libucrt:lcidtoname_downlevel.obj
 0002:00005e08       ??_C@_1O@DFKOMPG@?$AAs?$AAm?$AAa?$AA?9?$AAn?$AAo?$AA?$AA@ 0000000180033e08     libucrt:lcidtoname_downlevel.obj
 0002:00005e18       ??_C@_1O@NDKPBNNH@?$AAs?$AAm?$AAa?$AA?9?$AAs?$AAe?$AA?$AA@ 0000000180033e18     libucrt:lcidtoname_downlevel.obj
 0002:00005e28       ??_C@_1O@PLLKBHAB@?$AAs?$AAm?$AAj?$AA?9?$AAn?$AAo?$AA?$AA@ 0000000180033e28     libucrt:lcidtoname_downlevel.obj
 0002:00005e38       ??_C@_1O@CLEPOGCA@?$AAs?$AAm?$AAj?$AA?9?$AAs?$AAe?$AA?$AA@ 0000000180033e38     libucrt:lcidtoname_downlevel.obj
 0002:00005e48       ??_C@_1O@DLGJGKMK@?$AAs?$AAm?$AAn?$AA?9?$AAf?$AAi?$AA?$AA@ 0000000180033e48     libucrt:lcidtoname_downlevel.obj
 0002:00005e58       ??_C@_1O@OJDJGAJC@?$AAs?$AAm?$AAs?$AA?9?$AAf?$AAi?$AA?$AA@ 0000000180033e58     libucrt:lcidtoname_downlevel.obj
 0002:00005e68       ??_C@_1M@BOFOGHPB@?$AAs?$AAq?$AA?9?$AAa?$AAl?$AA?$AA@ 0000000180033e68     libucrt:lcidtoname_downlevel.obj
 0002:00005e78       ??_C@_1BG@LJBBIPGB@?$AAs?$AAr?$AA?9?$AAb?$AAa?$AA?9?$AAc?$AAy?$AAr?$AAl?$AA?$AA@ 0000000180033e78     libucrt:lcidtoname_downlevel.obj
 0002:00005e90       ??_C@_1BG@JLBENFOE@?$AAs?$AAr?$AA?9?$AAb?$AAa?$AA?9?$AAl?$AAa?$AAt?$AAn?$AA?$AA@ 0000000180033e90     libucrt:lcidtoname_downlevel.obj
 0002:00005ea8       ??_C@_1BG@KODPNHE@?$AAs?$AAr?$AA?9?$AAs?$AAp?$AA?9?$AAc?$AAy?$AAr?$AAl?$AA?$AA@ 0000000180033ea8     libucrt:lcidtoname_downlevel.obj
 0002:00005ec0       ??_C@_1BG@CIOGKHPB@?$AAs?$AAr?$AA?9?$AAs?$AAp?$AA?9?$AAl?$AAa?$AAt?$AAn?$AA?$AA@ 0000000180033ec0     libucrt:lcidtoname_downlevel.obj
 0002:00005ed8       ??_C@_1M@NGFJLMAC@?$AAs?$AAv?$AA?9?$AAf?$AAi?$AA?$AA@ 0000000180033ed8     libucrt:lcidtoname_downlevel.obj
 0002:00005ee8       ??_C@_1M@MPJEJAJC@?$AAs?$AAv?$AA?9?$AAs?$AAe?$AA?$AA@ 0000000180033ee8     libucrt:lcidtoname_downlevel.obj
 0002:00005ef8       ??_C@_1M@MPNDHLFK@?$AAs?$AAw?$AA?9?$AAk?$AAe?$AA?$AA@ 0000000180033ef8     libucrt:lcidtoname_downlevel.obj
 0002:00005f08       ??_C@_1O@KOHBJJI@?$AAs?$AAy?$AAr?$AA?9?$AAs?$AAy?$AA?$AA@ 0000000180033f08     libucrt:lcidtoname_downlevel.obj
 0002:00005f18       ??_C@_1M@LDCEFHA@?$AAt?$AAa?$AA?9?$AAi?$AAn?$AA?$AA@ 0000000180033f18     libucrt:lcidtoname_downlevel.obj
 0002:00005f28       ??_C@_1M@CNJOFAK@?$AAt?$AAe?$AA?9?$AAi?$AAn?$AA?$AA@ 0000000180033f28     libucrt:lcidtoname_downlevel.obj
 0002:00005f38       ??_C@_1M@GNAECACD@?$AAt?$AAh?$AA?9?$AAt?$AAh?$AA?$AA@ 0000000180033f38     libucrt:lcidtoname_downlevel.obj
 0002:00005f48       ??_C@_1M@CHBIHOJO@?$AAt?$AAn?$AA?9?$AAz?$AAa?$AA?$AA@ 0000000180033f48     libucrt:lcidtoname_downlevel.obj
 0002:00005f58       ??_C@_1M@GCCMIGPJ@?$AAt?$AAr?$AA?9?$AAt?$AAr?$AA?$AA@ 0000000180033f58     libucrt:lcidtoname_downlevel.obj
 0002:00005f68       ??_C@_1M@CELMCNBK@?$AAt?$AAt?$AA?9?$AAr?$AAu?$AA?$AA@ 0000000180033f68     libucrt:lcidtoname_downlevel.obj
 0002:00005f78       ??_C@_1M@KLMCELGA@?$AAu?$AAk?$AA?9?$AAu?$AAa?$AA?$AA@ 0000000180033f78     libucrt:lcidtoname_downlevel.obj
 0002:00005f88       ??_C@_1M@EPAJJAJF@?$AAu?$AAr?$AA?9?$AAp?$AAk?$AA?$AA@ 0000000180033f88     libucrt:lcidtoname_downlevel.obj
 0002:00005f98       ??_C@_1BG@GEGPMCDJ@?$AAu?$AAz?$AA?9?$AAu?$AAz?$AA?9?$AAc?$AAy?$AAr?$AAl?$AA?$AA@ 0000000180033f98     libucrt:lcidtoname_downlevel.obj
 0002:00005fb0       ??_C@_1BG@EGGKJILM@?$AAu?$AAz?$AA?9?$AAu?$AAz?$AA?9?$AAl?$AAa?$AAt?$AAn?$AA?$AA@ 0000000180033fb0     libucrt:lcidtoname_downlevel.obj
 0002:00005fc8       ??_C@_1M@GFOCLFF@?$AAv?$AAi?$AA?9?$AAv?$AAn?$AA?$AA@ 0000000180033fc8     libucrt:lcidtoname_downlevel.obj
 0002:00005fd8       ??_C@_1M@CPAMEDFI@?$AAx?$AAh?$AA?9?$AAz?$AAa?$AA?$AA@ 0000000180033fd8     libucrt:lcidtoname_downlevel.obj
 0002:00005fe8       ??_C@_1O@EBKIFIGN@?$AAz?$AAh?$AA?9?$AAc?$AAh?$AAs?$AA?$AA@ 0000000180033fe8     libucrt:lcidtoname_downlevel.obj
 0002:00005ff8       ??_C@_1O@NMHPGANE@?$AAz?$AAh?$AA?9?$AAc?$AAh?$AAt?$AA?$AA@ 0000000180033ff8     libucrt:lcidtoname_downlevel.obj
 0002:00006008       ??_C@_1M@LPINJOMC@?$AAz?$AAh?$AA?9?$AAc?$AAn?$AA?$AA@ 0000000180034008     libucrt:lcidtoname_downlevel.obj
 0002:00006018       ??_C@_1M@OCJEJODD@?$AAz?$AAh?$AA?9?$AAh?$AAk?$AA?$AA@ 0000000180034018     libucrt:lcidtoname_downlevel.obj
 0002:00006028       ??_C@_1M@DNDLJINH@?$AAz?$AAh?$AA?9?$AAm?$AAo?$AA?$AA@ 0000000180034028     libucrt:lcidtoname_downlevel.obj
 0002:00006038       ??_C@_1M@MBFDNDND@?$AAz?$AAh?$AA?9?$AAs?$AAg?$AA?$AA@ 0000000180034038     libucrt:lcidtoname_downlevel.obj
 0002:00006048       ??_C@_1M@IMEPLEPE@?$AAz?$AAh?$AA?9?$AAt?$AAw?$AA?$AA@ 0000000180034048     libucrt:lcidtoname_downlevel.obj
 0002:00006058       ??_C@_1M@BBGHNHJP@?$AAz?$AAu?$AA?9?$AAz?$AAa?$AA?$AA@ 0000000180034058     libucrt:lcidtoname_downlevel.obj
 0002:00006064       ??_C@_00CNPNBAHC@?$AA@     0000000180034064     libucrt:mbrtowc.obj
 0002:00006070       ?large_power_data@?1??multiply_by_power_of_ten@__crt_strtox@@YA_NAEAUbig_integer@2@I@Z@4QBIB 0000000180034070     libucrt:cfout.obj
 0002:00006980       ?large_power_indices@?1??multiply_by_power_of_ten@__crt_strtox@@YA_NAEAUbig_integer@2@I@Z@4QBUunpack_index@?1??12@YA_N0I@Z@B 0000000180034980     libucrt:cfout.obj
 0002:00006a18       ?small_powers_of_ten@?1??multiply_by_power_of_ten@__crt_strtox@@YA_NAEAUbig_integer@2@I@Z@4QBIB 0000000180034a18     libucrt:cfout.obj
 0002:00006a3c       ??_C@_01GBGANLPD@0?$AA@    0000000180034a3c     libucrt:cfout.obj
 0002:00006a40       ??_C@_05DNEBIAHO@1?$CDINF?$AA@ 0000000180034a40     libucrt:cfout.obj
 0002:00006a48       ??_C@_06IMKFLFPG@1?$CDQNAN?$AA@ 0000000180034a48     libucrt:cfout.obj
 0002:00006a50       ??_C@_06PGGFOGJG@1?$CDSNAN?$AA@ 0000000180034a50     libucrt:cfout.obj
 0002:00006a58       ??_C@_05PHHOCPM@1?$CDIND?$AA@ 0000000180034a58     libucrt:cfout.obj
 0002:00006a60       __real@3ff0000000000000    0000000180034a60     libucrt:ceil.obj
 0002:00006ce8       ??_C@_1BA@BALFACEM@?$AAC?$AAO?$AAN?$AAO?$AAU?$AAT?$AA$?$AA?$AA@ 0000000180034ce8     libucrt:initcon.obj
 0002:00006d00       __log10_256_lead           0000000180034d00     libucrt:log10_256_lead_tail_table.obj
 0002:00007510       __log10_256_tail           0000000180035510     libucrt:log10_256_lead_tail_table.obj
 0002:00007d20       __log_F_inv_qword          0000000180035d20     libucrt:log_f_inv_qword_table.obj
 0002:00008530       ??_C@_05HGHHAHAP@log10?$AA@ 0000000180036530     libucrt:log_special.obj
 0002:00008550       ??_C@_1BK@DBDEIDLH@?$AAK?$AAE?$AAR?$AAN?$AAE?$AAL?$AA3?$AA2?$AA?4?$AAD?$AAL?$AAL@ 0000000180036550     DelayImp:delayhlp.obj
 0002:00008570       ??_C@_0BI@OMNLIJDB@AcquireSRWLockExclusive@ 0000000180036570     DelayImp:delayhlp.obj
 0002:00008588       ??_C@_0BI@HMIEPCNJ@ReleaseSRWLockExclusive@ 0000000180036588     DelayImp:delayhlp.obj
 0002:000085a0       __pfnDliFailureHook2       00000001800365a0     DelayImp:delayhk1.obj
 0002:000085b0       _load_config_used          00000001800365b0     LIBCMT:loadcfg.obj
 0002:000086b0       ??_C@_0BB@FFDPPBHG@privateKeyVerify@ 00000001800366b0     addon.obj
 0002:000086c8       ??_C@_0BB@ENGLBPDN@privateKeyExport@ 00000001800366c8     addon.obj
 0002:000086e0       ??_C@_0BB@NJNAOGGB@privateKeyImport@ 00000001800366e0     addon.obj
 0002:000086f8       ??_C@_0BB@JFGPDJIB@privateKeyNegate@ 00000001800366f8     addon.obj
 0002:00008710       ??_C@_0BF@BJLEMGHI@privateKeyModInverse@ 0000000180036710     addon.obj
 0002:00008728       ??_C@_0BD@GONNKOJI@privateKeyTweakAdd@ 0000000180036728     addon.obj
 0002:00008740       ??_C@_0BD@PBDGFCGP@privateKeyTweakMul@ 0000000180036740     addon.obj
 0002:00008758       ??_C@_0BA@BFEMKLAJ@publicKeyCreate@ 0000000180036758     addon.obj
 0002:00008768       ??_C@_0BB@HNFIILKN@publicKeyConvert@ 0000000180036768     addon.obj
 0002:00008780       ??_C@_0BA@NANIGDHN@publicKeyVerify@ 0000000180036780     addon.obj
 0002:00008790       ??_C@_0BC@JDCIAANM@publicKeyTweakAdd@ 0000000180036790     addon.obj
 0002:000087a8       ??_C@_0BC@MMDPMCL@publicKeyTweakMul@ 00000001800367a8     addon.obj
 0002:000087c0       ??_C@_0BB@GCJPAOPN@publicKeyCombine@ 00000001800367c0     addon.obj
 0002:000087d8       ??_C@_0BD@HCCJJHPI@signatureNormalize@ 00000001800367d8     addon.obj
 0002:000087f0       ??_C@_0BA@BAGCMKKI@signatureExport@ 00000001800367f0     addon.obj
 0002:00008800       ??_C@_0BA@IENJDDPE@signatureImport@ 0000000180036800     addon.obj
 0002:00008810       ??_C@_0BD@MGJIGBKE@signatureImportLax@ 0000000180036810     addon.obj
 0002:00008824       ??_C@_04HHGHLBPI@sign@     0000000180036824     addon.obj
 0002:0000882c       ??_C@_06MCIJCFHC@verify@   000000018003682c     addon.obj
 0002:00008838       ??_C@_07CFGFKFKO@recover@  0000000180036838     addon.obj
 0002:00008840       ??_C@_04KDGGCKGB@ecdh@     0000000180036840     addon.obj
 0002:00008848       ??_C@_0L@KHIBCKIP@ecdhUnsafe@ 0000000180036848     addon.obj
 0002:00008860       ??_C@_0ID@CFBNOHGE@c?3?2users?2adamsmwambiamichael?2de@ 0000000180036860     addon.obj
 0002:000088e8       ??_C@_09NCBPAPNE@secp256k1@ 00000001800368e8     addon.obj
 0002:00008900       ??_C@_1OM@OHGDPALF@?$AAc?$AA?3?$AA?2?$AAu?$AAs?$AAe?$AAr?$AAs?$AA?2?$AAa?$AAd?$AAa?$AAm?$AAs?$AAm@ 0000000180036900     privatekey.obj
 0002:000089f0       ??_C@_1FM@LOELJOFK@?$AAs?$AAi?$AAz?$AAe?$AA?5?$AA?$DM?$AA?$DN?$AA?5?$AAi?$AAm?$AAp?$AA?3?$AA?3?$AAk?$AAM@ 00000001800369f0     privatekey.obj
 0002:00008a50       ??_C@_0BP@JIEJBPAC@private?5key?5should?5be?5a?5Buffer@ 0000000180036a50     privatekey.obj
 0002:00008a70       ??_C@_0BO@NLLKFAEF@private?5key?5length?5is?5invalid@ 0000000180036a70     privatekey.obj
 0002:00008a90       ??_C@_0BP@BMJKMFPI@compressed?5should?5be?5a?5boolean@ 0000000180036a90     privatekey.obj
 0002:00008ab0       ??_C@_0BO@OOMKMKGO@couldn?8t?5export?5to?5DER?5format@ 0000000180036ab0     privatekey.obj
 0002:00008ad0       ??_C@_0CA@MCLECJC@couldn?8t?5import?5from?5DER?5format@ 0000000180036ad0     privatekey.obj
 0002:00008af0       ??_C@_0BN@MPJFKGPJ@private?5key?5range?5is?5invalid@ 0000000180036af0     privatekey.obj
 0002:00008b10       ??_C@_0BJ@BHDGCNCN@tweak?5should?5be?5a?5Buffer@ 0000000180036b10     privatekey.obj
 0002:00008b30       ??_C@_0BI@MBBGIAJJ@tweak?5length?5is?5invalid@ 0000000180036b30     privatekey.obj
 0002:00008b48       ??_C@_0DH@IGLMMEC@tweak?5out?5of?5range?5or?5resulting@ 0000000180036b48     privatekey.obj
 0002:00008b80       ??_C@_0BD@HPKHANIC@tweak?5out?5of?5range@ 0000000180036b80     privatekey.obj
 0002:00008b98       ??_C@_0BP@DAHPFBIN@private?5was?5invalid?0?5try?5again@ 0000000180036b98     publickey.obj
 0002:00008bb8       ??_C@_0BO@JJPLGBND@public?5key?5should?5be?5a?5Buffer@ 0000000180036bb8     publickey.obj
 0002:00008bd8       ??_C@_0BN@LCLFIHAE@public?5key?5length?5is?5invalid@ 0000000180036bd8     publickey.obj
 0002:00008bf8       ??_C@_0DB@GMGOFJMO@the?5public?5key?5could?5not?5be?5par@ 0000000180036bf8     publickey.obj
 0002:00008c30       ??_C@_0DG@EMLGDJE@tweak?5out?5of?5range?5or?5resulting@ 0000000180036c30     publickey.obj
 0002:00008c68       ??_C@_0BP@LLIAINCO@public?5keys?5should?5be?5an?5Array@ 0000000180036c68     publickey.obj
 0002:00008c88       ??_C@_0DB@MPHEOHGH@public?5keys?5Array?5should?5have?5a@ 0000000180036c88     publickey.obj
 0002:00008cc0       ??_C@_0CI@FMAAKMBE@the?5sum?5of?5the?5public?5keys?5is?5n@ 0000000180036cc0     publickey.obj
 0002:00008ce8       ??_C@_0BN@NAIMHGIM@signature?5should?5be?5a?5Buffer@ 0000000180036ce8     signature.obj
 0002:00008d08       ??_C@_0BM@KMOFJFOC@signature?5length?5is?5invalid@ 0000000180036d08     signature.obj
 0002:00008d28       ??_C@_0BJ@MAHJLKCH@couldn?8t?5parse?5signature@ 0000000180036d28     signature.obj
 0002:00008d48       ??_C@_0CL@LINIMNBI@couldn?8t?5serialize?5signature?5to@ 0000000180036d48     signature.obj
 0002:00008d78       ??_C@_0BN@BLDHMALN@couldn?8t?5parse?5DER?5signature@ 0000000180036d78     signature.obj
 0002:00008d98       ??_C@_0BL@LHDEFIKP@message?5should?5be?5a?5Buffer@ 0000000180036d98     ecdsa.obj
 0002:00008db8       ??_C@_0BK@MJIBHKHJ@message?5length?5is?5invalid@ 0000000180036db8     ecdsa.obj
 0002:00008dd8       ??_C@_0BM@IKBCMKNI@options?5should?5be?5an?5Object@ 0000000180036dd8     ecdsa.obj
 0002:00008df4       ??_C@_04PJOLNDGD@data@     0000000180036df4     ecdsa.obj
 0002:00008e00       ??_C@_0CA@HKHILMLE@options?4data?5should?5be?5a?5Buffer@ 0000000180036e00     ecdsa.obj
 0002:00008e20       ??_C@_0BP@FCGDPCIM@options?4data?5length?5is?5invalid@ 0000000180036e20     ecdsa.obj
 0002:00008e40       ??_C@_07HFPCDLCO@noncefn@  0000000180036e40     ecdsa.obj
 0002:00008e48       ??_C@_0CF@LKLLICKN@options?4noncefn?5should?5be?5a?5Fun@ 0000000180036e48     ecdsa.obj
 0002:00008e70       ??_C@_0DL@IOHGLBGB@nonce?5generation?5function?5faile@ 0000000180036e70     ecdsa.obj
 0002:00008eb0       ??_C@_09CMIIOJHF@signature@ 0000000180036eb0     ecdsa.obj
 0002:00008ec0       ??_C@_08MPLGCJPF@recovery@ 0000000180036ec0     ecdsa.obj
 0002:00008ed0       ??_C@_0BM@FFMLHDJP@recovery?5should?5be?5a?5Number@ 0000000180036ed0     ecdsa.obj
 0002:00008ef0       ??_C@_0CM@KIIOJKEN@recovery?5should?5have?5value?5betw@ 0000000180036ef0     ecdsa.obj
 0002:00008f20       ??_C@_0CL@FAAEGCCA@couldn?8t?5recover?5public?5key?5fro@ 0000000180036f20     ecdsa.obj
 0002:00008f50       ??_C@_0CG@POFFCBCI@scalar?5was?5invalid?5?$CIzero?5or?5ove@ 0000000180036f50     ecdh.obj
 0002:00008f80       secp256k1_nonce_function_rfc6979 0000000180036f80     secp256k1.obj
 0002:00008f88       secp256k1_ecdh_hash_function_sha256 0000000180036f88     secp256k1.obj
 0002:00008fa8       CURVE_B                    0000000180036fa8     secp256k1.obj
 0002:00008fb0       secp256k1_ecdh_hash_function_default 0000000180036fb0     secp256k1.obj
 0002:00009038       secp256k1_nonce_function_default 0000000180037038     secp256k1.obj
 0002:00009330       __pfnDliNotifyHook2        0000000180037330     win_delay_load_hook.obj
 0002:00009338       ??_C@_0O@NALGGDJF@Out?5of?5memory@ 0000000180037338     secp256k1.obj
 0002:00009348       ??_C@_0CF@PNAFLMBB@?$FLlibsecp256k1?$FN?5illegal?5argument@ 0000000180037348     secp256k1.obj
 0002:00009370       ??_C@_0DG@BJLECLHN@?$FLlibsecp256k1?$FN?5internal?5consist@ 0000000180037370     secp256k1.obj
 0002:000093a8       ??_C@_0BO@MEDHMLE@?$CBsecp256k1_fe_is_zero?$CI?$CGge?9?$DOx?$CJ@ 00000001800373a8     secp256k1.obj
 0002:000093c8       ??_C@_0P@BLGFIEHN@pubkey?5?$CB?$DN?5NULL@ 00000001800373c8     secp256k1.obj
 0002:000093d8       ??_C@_0O@OLCODGMC@input?5?$CB?$DN?5NULL@ 00000001800373d8     secp256k1.obj
 0002:000093e8       ??_C@_0BC@IEFMPDJH@outputlen?5?$CB?$DN?5NULL@ 00000001800373e8     secp256k1.obj
 0002:00009400       ??_C@_0EE@LNKHCOIM@?$CKoutputlen?5?$DO?$DN?5?$CI?$CIflags?5?$CG?5SECP256@ 0000000180037400     secp256k1.obj
 0002:00009448       ??_C@_0P@DJOPKHCB@output?5?$CB?$DN?5NULL@ 0000000180037448     secp256k1.obj
 0002:00009460       ??_C@_0EI@PFCFBFCO@?$CIflags?5?$CG?5SECP256K1_FLAGS_TYPE_M@ 0000000180037460     secp256k1.obj
 0002:000094a8       ??_C@_0M@IIDFJBPK@sig?5?$CB?$DN?5NULL@ 00000001800374a8     secp256k1.obj
 0002:000094b8       ??_C@_0BA@NEGFEDPL@input64?5?$CB?$DN?5NULL@ 00000001800374b8     secp256k1.obj
 0002:000094c8       ??_C@_0DE@OCLDJJOD@secp256k1_ecmult_context_is_bui@ 00000001800374c8     secp256k1.obj
 0002:00009500       ??_C@_0O@NEHANPEF@msg32?5?$CB?$DN?5NULL@ 0000000180037500     secp256k1.obj
 0002:00009510       ??_C@_0DM@OKJIJIHN@secp256k1_ecmult_gen_context_is@ 0000000180037510     secp256k1.obj
 0002:00009550       ??_C@_0BC@MDDDGEFK@signature?5?$CB?$DN?5NULL@ 0000000180037550     secp256k1.obj
 0002:00009568       ??_C@_0P@LBDMALON@seckey?5?$CB?$DN?5NULL@ 0000000180037568     secp256k1.obj
 0002:00009578       ??_C@_0O@FFMFCBAH@tweak?5?$CB?$DN?5NULL@ 0000000180037578     secp256k1.obj
 0002:00009588       ??_C@_0BB@LBEEDEP@pubnonce?5?$CB?$DN?5NULL@ 0000000180037588     secp256k1.obj
 0002:0000959c       ??_C@_06FMPGHFMG@n?5?$DO?$DN?51@ 000000018003759c     secp256k1.obj
 0002:000095a8       ??_C@_0BC@NKDOGIIF@pubnonces?5?$CB?$DN?5NULL@ 00000001800375a8     secp256k1.obj
 0002:000095c0       ??_C@_0O@OCDKLIIJ@point?5?$CB?$DN?5NULL@ 00000001800375c0     secp256k1.obj
 0002:000095d0       ??_C@_0P@BFADJEOK@scalar?5?$CB?$DN?5NULL@ 00000001800375d0     secp256k1.obj
 0002:000095e0       ??_C@_0BJ@LCJJGFHH@recid?5?$DO?$DN?50?5?$CG?$CG?5recid?5?$DM?$DN?53@ 00000001800375e0     secp256k1.obj
 0002:00009600       ??_C@_08HCOMDCCD@iojs?4exe@ 0000000180037600     win_delay_load_hook.obj
 0002:00009610       ??_C@_08JDDNMFDB@node?4exe@ 0000000180037610     win_delay_load_hook.obj
 0002:00009620       __xmm@5c5c5c5c5c5c5c5c5c5c5c5c5c5c5c5c 0000000180037620     secp256k1.obj
 0002:00009630       __xmm@6a6a6a6a6a6a6a6a6a6a6a6a6a6a6a6a 0000000180037630     secp256k1.obj
 0002:00009698       ??_R4exception@std@@6B@    0000000180037698     LIBCMT:throw_bad_alloc.obj
 0002:000096c0       ??_R3exception@std@@8      00000001800376c0     LIBCMT:throw_bad_alloc.obj
 0002:000096d8       ??_R2exception@std@@8      00000001800376d8     LIBCMT:throw_bad_alloc.obj
 0002:000096e8       ??_R1A@?0A@EA@exception@std@@8 00000001800376e8     LIBCMT:throw_bad_alloc.obj
 0002:00009710       ??_R4bad_alloc@std@@6B@    0000000180037710     LIBCMT:throw_bad_alloc.obj
 0002:00009738       ??_R3bad_alloc@std@@8      0000000180037738     LIBCMT:throw_bad_alloc.obj
 0002:00009750       ??_R2bad_alloc@std@@8      0000000180037750     LIBCMT:throw_bad_alloc.obj
 0002:00009768       ??_R1A@?0A@EA@bad_alloc@std@@8 0000000180037768     LIBCMT:throw_bad_alloc.obj
 0002:00009790       ??_R4bad_array_new_length@std@@6B@ 0000000180037790     LIBCMT:throw_bad_alloc.obj
 0002:000097b8       ??_R3bad_array_new_length@std@@8 00000001800377b8     LIBCMT:throw_bad_alloc.obj
 0002:000097d0       ??_R2bad_array_new_length@std@@8 00000001800377d0     LIBCMT:throw_bad_alloc.obj
 0002:000097f0       ??_R1A@?0A@EA@bad_array_new_length@std@@8 00000001800377f0     LIBCMT:throw_bad_alloc.obj
 0002:00009818       ??_R4type_info@@6B@        0000000180037818     LIBCMT:std_type_info_static.obj
 0002:00009840       ??_R3type_info@@8          0000000180037840     LIBCMT:std_type_info_static.obj
 0002:00009858       ??_R2type_info@@8          0000000180037858     LIBCMT:std_type_info_static.obj
 0002:00009868       ??_R1A@?0A@EA@type_info@@8 0000000180037868     LIBCMT:std_type_info_static.obj
 0002:00009890       ??_R4bad_exception@std@@6B@ 0000000180037890     libvcruntime:frame.obj
 0002:000098b8       ??_R3bad_exception@std@@8  00000001800378b8     libvcruntime:frame.obj
 0002:000098d0       ??_R2bad_exception@std@@8  00000001800378d0     libvcruntime:frame.obj
 0002:000098e8       ??_R1A@?0A@EA@bad_exception@std@@8 00000001800378e8     libvcruntime:frame.obj
 0002:00009d20       __rtc_iaa                  0000000180037d20     LIBCMT:_initsect_.obj
 0002:00009d28       __rtc_izz                  0000000180037d28     LIBCMT:_initsect_.obj
 0002:00009d30       __rtc_taa                  0000000180037d30     LIBCMT:_initsect_.obj
 0002:00009d38       __rtc_tzz                  0000000180037d38     LIBCMT:_initsect_.obj
 0002:0000bc48       _TI2?AVbad_alloc@std@@     0000000180039c48     LIBCMT:throw_bad_alloc.obj
 0002:0000bc68       _CTA2?AVbad_alloc@std@@    0000000180039c68     LIBCMT:throw_bad_alloc.obj
 0002:0000bc80       _CT??_R0?AVbad_alloc@std@@@8??0bad_alloc@std@@QEAA@AEBV01@@Z24 0000000180039c80     LIBCMT:throw_bad_alloc.obj
 0002:0000bca8       _CT??_R0?AVexception@std@@@8??0exception@std@@QEAA@AEBV01@@Z24 0000000180039ca8     LIBCMT:throw_bad_alloc.obj
 0002:0000bcd0       _TI3?AVbad_array_new_length@std@@ 0000000180039cd0     LIBCMT:throw_bad_alloc.obj
 0002:0000bcf0       _CTA3?AVbad_array_new_length@std@@ 0000000180039cf0     LIBCMT:throw_bad_alloc.obj
 0002:0000bd10       _CT??_R0?AVbad_array_new_length@std@@@8??0bad_array_new_length@std@@QEAA@AEBV01@@Z24 0000000180039d10     LIBCMT:throw_bad_alloc.obj
 0002:0000bd38       _TI2?AVbad_exception@std@@ 0000000180039d38     libvcruntime:frame.obj
 0002:0000bd58       _CTA2?AVbad_exception@std@@ 0000000180039d58     libvcruntime:frame.obj
 0002:0000bd70       _CT??_R0?AVbad_exception@std@@@8??0bad_exception@std@@QEAA@AEBV01@@Z24 0000000180039d70     libvcruntime:frame.obj
 0002:0000bd94       __DELAY_IMPORT_DESCRIPTOR_node_exe 0000000180039d94     node:node.exe
 0002:0000bdb4       __NULL_DELAY_IMPORT_DESCRIPTOR 0000000180039db4     node:node.exe
 0002:0000bf70       \177node_NULL_THUNK_DATA_DLN 0000000180039f70     node:node.exe
 0002:0000cc08       \177node_NULL_THUNK_DATA_DLB 000000018003ac08     node:node.exe
 0002:0000cdf8       __IMPORT_DESCRIPTOR_KERNEL32 000000018003adf8     kernel32:KERNEL32.dll
 0002:0000ce0c       __NULL_IMPORT_DESCRIPTOR   000000018003ae0c     kernel32:KERNEL32.dll
 0003:00000000       __security_cookie_complement 000000018003c000     LIBCMT:gs_cookie.obj
 0003:00000008       __security_cookie          000000018003c008     LIBCMT:gs_cookie.obj
 0003:00000010       __scrt_native_dllmain_reason 000000018003c010     LIBCMT:utility.obj
 0003:00000018       __isa_available            000000018003c018     LIBCMT:_cpu_disp_.obj
 0003:0000001c       __isa_enabled              000000018003c01c     LIBCMT:_cpu_disp_.obj
 0003:00000020       __memcpy_nt_iters          000000018003c020     LIBCMT:_cpu_disp_.obj
 0003:00000040       __abort_behavior           000000018003c040     libucrt:abort.obj
 0003:00000050       _iob                       000000018003c050     libucrt:_file.obj
 0003:00000170       __badioinfo                000000018003c170     libucrt:ioinit.obj
 0003:000001c0       __acrt_initial_locale_data 000000018003c1c0     libucrt:nlsdata.obj
 0003:00000318       __acrt_initial_locale_pointers 000000018003c318     libucrt:nlsdata.obj
 0003:00000328       __acrt_wide_c_locale_string 000000018003c328     libucrt:nlsdata.obj
 0003:00000420       __acrt_initial_multibyte_data 000000018003c420     libucrt:mbctype.obj
 0003:00000860       _pwctype                   000000018003c860     libucrt:ctype.obj
 0003:00000868       __globallocalestatus       000000018003c868     libucrt:glstatus.obj
 0003:00000870       __acrt_lconv_c             000000018003c870     libucrt:localeconv.obj
 0003:00000908       __acrt_lconv_static_decimal 000000018003c908     libucrt:localeconv.obj
 0003:0000090c       __acrt_lconv_static_W_decimal 000000018003c90c     libucrt:localeconv.obj
 0003:00000930       _fltused                   000000018003c930     LIBCMT:fltused.obj
 0003:00000980       ??_R0?AVbad_alloc@std@@@8  000000018003c980     LIBCMT:throw_bad_alloc.obj
 0003:000009a8       ??_R0?AVexception@std@@@8  000000018003c9a8     LIBCMT:throw_bad_alloc.obj
 0003:000009d0       ??_R0?AVbad_array_new_length@std@@@8 000000018003c9d0     LIBCMT:throw_bad_alloc.obj
 0003:00000a00       ??_R0?AVtype_info@@@8      000000018003ca00     LIBCMT:std_type_info_static.obj
 0003:00000a20       ??_R0?AVbad_exception@std@@@8 000000018003ca20     libvcruntime:frame.obj
 0003:00000a48       __imp_?Value@External@v8@@QEBAPEAXXZ 000000018003ca48     node:node.exe
 0003:00000a50       __imp_?Length@Buffer@node@@YA_KV?$Local@VValue@v8@@@v8@@@Z 000000018003ca50     node:node.exe
 0003:00000a58       __imp_?New@External@v8@@SA?AV?$Local@VExternal@v8@@@2@PEAVIsolate@2@PEAX@Z 000000018003ca58     node:node.exe
 0003:00000a60       __imp_?GetCurrentContext@Isolate@v8@@QEAA?AV?$Local@VContext@v8@@@2@XZ 000000018003ca60     node:node.exe
 0003:00000a68       __imp_?GetCurrent@Isolate@v8@@SAPEAV12@XZ 000000018003ca68     node:node.exe
 0003:00000a70       __imp_?CreateHandle@HandleScope@v8@@CAPEAPEAVObject@internal@2@PEAVHeapObject@42@PEAV342@@Z 000000018003ca70     node:node.exe
 0003:00000a78       __imp_??1HandleScope@v8@@QEAA@XZ 000000018003ca78     node:node.exe
 0003:00000a80       __imp_??0HandleScope@v8@@QEAA@PEAVIsolate@1@@Z 000000018003ca80     node:node.exe
 0003:00000a88       __imp_?GetFunction@FunctionTemplate@v8@@QEAA?AV?$MaybeLocal@VFunction@v8@@@2@V?$Local@VContext@v8@@@2@@Z 000000018003ca88     node:node.exe
 0003:00000a90       __imp_?New@FunctionTemplate@v8@@SA?AV?$Local@VFunctionTemplate@v8@@@2@PEAVIsolate@2@P6AXAEBV?$FunctionCallbackInfo@VValue@v8@@@2@@ZV?$Local@VValue@v8@@@2@V?$Local@VSignature@v8@@@2@HW4ConstructorBehavior@2@@Z 000000018003ca90     node:node.exe
 0003:00000a98       __imp_?ToLocalEmpty@V8@v8@@CAXXZ 000000018003ca98     node:node.exe
 0003:00000aa0       __imp_?Escape@EscapableHandleScope@v8@@AEAAPEAPEAVObject@internal@2@PEAPEAV342@@Z 000000018003caa0     node:node.exe
 0003:00000aa8       __imp_??0EscapableHandleScope@v8@@QEAA@PEAVIsolate@1@@Z 000000018003caa8     node:node.exe
 0003:00000ab0       __imp_?NewFromUtf8@String@v8@@SA?AV?$MaybeLocal@VString@v8@@@2@PEAVIsolate@2@PEBDW4NewStringType@2@H@Z 000000018003cab0     node:node.exe
 0003:00000ab8       __imp_?SlowGetInternalField@Object@v8@@AEAA?AV?$Local@VValue@v8@@@2@H@Z 000000018003cab8     node:node.exe
 0003:00000ac0       __imp_?SetInternalField@Object@v8@@QEAAXHV?$Local@VValue@v8@@@2@@Z 000000018003cac0     node:node.exe
 0003:00000ac8       __imp_?Set@Object@v8@@QEAA?AV?$Maybe@_N@2@V?$Local@VContext@v8@@@2@V?$Local@VValue@v8@@@2@1@Z 000000018003cac8     node:node.exe
 0003:00000ad0       __imp_?SetInternalFieldCount@ObjectTemplate@v8@@QEAAXH@Z 000000018003cad0     node:node.exe
 0003:00000ad8       __imp_?NewInstance@ObjectTemplate@v8@@QEAA?AV?$MaybeLocal@VObject@v8@@@2@V?$Local@VContext@v8@@@2@@Z 000000018003cad8     node:node.exe
 0003:00000ae0       __imp_?New@ObjectTemplate@v8@@SA?AV?$Local@VObjectTemplate@v8@@@2@PEAVIsolate@2@V?$Local@VFunctionTemplate@v8@@@2@@Z 000000018003cae0     node:node.exe
 0003:00000ae8       __imp_node_module_register 000000018003cae8     node:node.exe
 0003:00000af0       __imp_?ThrowException@Isolate@v8@@QEAA?AV?$Local@VValue@v8@@@2@V32@@Z 000000018003caf0     node:node.exe
 0003:00000af8       __imp_?Error@Exception@v8@@SA?AV?$Local@VValue@v8@@@2@V?$Local@VString@v8@@@2@@Z 000000018003caf8     node:node.exe
 0003:00000b00       __imp_?TypeError@Exception@v8@@SA?AV?$Local@VValue@v8@@@2@V?$Local@VString@v8@@@2@@Z 000000018003cb00     node:node.exe
 0003:00000b08       __imp_?RangeError@Exception@v8@@SA?AV?$Local@VValue@v8@@@2@V?$Local@VString@v8@@@2@@Z 000000018003cb08     node:node.exe
 0003:00000b10       __imp_?FromJustIsNothing@V8@v8@@CAXXZ 000000018003cb10     node:node.exe
 0003:00000b18       __imp_?BooleanValue@Value@v8@@QEBA?AV?$Maybe@_N@2@V?$Local@VContext@v8@@@2@@Z 000000018003cb18     node:node.exe
 0003:00000b20       __imp_?IsBooleanObject@Value@v8@@QEBA_NXZ 000000018003cb20     node:node.exe
 0003:00000b28       __imp_?IsBoolean@Value@v8@@QEBA_NXZ 000000018003cb28     node:node.exe
 0003:00000b30       __imp_?HasInstance@Buffer@node@@YA_NV?$Local@VObject@v8@@@v8@@@Z 000000018003cb30     node:node.exe
 0003:00000b38       __imp_?Data@Buffer@node@@YAPEADV?$Local@VObject@v8@@@v8@@@Z 000000018003cb38     node:node.exe
 0003:00000b40       __imp_?Copy@Buffer@node@@YA?AV?$MaybeLocal@VObject@v8@@@v8@@PEAVIsolate@4@PEBD_K@Z 000000018003cb40     node:node.exe
 0003:00000b48       __imp_?Length@Buffer@node@@YA_KV?$Local@VObject@v8@@@v8@@@Z 000000018003cb48     node:node.exe
 0003:00000b50       __imp_?Length@Array@v8@@QEBAIXZ 000000018003cb50     node:node.exe
 0003:00000b58       __imp_?IsArray@Value@v8@@QEBA_NXZ 000000018003cb58     node:node.exe
 0003:00000b60       __imp_?Get@Object@v8@@QEAA?AV?$Local@VValue@v8@@@2@I@Z 000000018003cb60     node:node.exe
 0003:00000b68       __imp_?Global@Context@v8@@QEAA?AV?$Local@VObject@v8@@@2@XZ 000000018003cb68     node:node.exe
 0003:00000b70       __imp_?NewFromUnsigned@Integer@v8@@SA?AV?$Local@VInteger@v8@@@2@PEAVIsolate@2@I@Z 000000018003cb70     node:node.exe
 0003:00000b78       __imp_?IntegerValue@Value@v8@@QEBA?AV?$Maybe@_J@2@V?$Local@VContext@v8@@@2@@Z 000000018003cb78     node:node.exe
 0003:00000b80       __imp_?ToUint32@Value@v8@@QEBA?AV?$MaybeLocal@VUint32@v8@@@2@V?$Local@VContext@v8@@@2@@Z 000000018003cb80     node:node.exe
 0003:00000b88       __imp_?IsNumberObject@Value@v8@@QEBA_NXZ 000000018003cb88     node:node.exe
 0003:00000b90       __imp_?IsNumber@Value@v8@@QEBA_NXZ 000000018003cb90     node:node.exe
 0003:00000b98       __imp_?IsObject@Value@v8@@QEBA_NXZ 000000018003cb98     node:node.exe
 0003:00000ba0       __imp_?IsFunction@Value@v8@@QEBA_NXZ 000000018003cba0     node:node.exe
 0003:00000ba8       __imp_?New@Number@v8@@SA?AV?$Local@VNumber@v8@@@2@PEAVIsolate@2@N@Z 000000018003cba8     node:node.exe
 0003:00000bb0       __imp_?New@Object@v8@@SA?AV?$Local@VObject@v8@@@2@PEAVIsolate@2@@Z 000000018003cbb0     node:node.exe
 0003:00000bb8       __imp_?Get@Object@v8@@QEAA?AV?$Local@VValue@v8@@@2@V32@@Z 000000018003cbb8     node:node.exe
 0003:00000bc0       __imp_?Set@Object@v8@@QEAA_NV?$Local@VValue@v8@@@2@0@Z 000000018003cbc0     node:node.exe
 0003:00000bc8       __imp_?Call@Function@v8@@QEAA?AV?$Local@VValue@v8@@@2@V32@HQEAV32@@Z 000000018003cbc8     node:node.exe
 0003:00000bd0       __imp_?HasInstance@Buffer@node@@YA_NV?$Local@VValue@v8@@@v8@@@Z 000000018003cbd0     node:node.exe
 0003:00000bd8       __imp_?Data@Buffer@node@@YAPEADV?$Local@VValue@v8@@@v8@@@Z 000000018003cbd8     node:node.exe
 0003:00000be0       \177node_NULL_THUNK_DATA_DLA 000000018003cbe0     node:node.exe
 0003:00000bf0       __hmod__node_exe           000000018003cbf0     node:node.exe
 0003:00001170       ?__type_info_root_node@@3U__type_info_node@@A 000000018003d170     LIBCMT:tncleanup.obj
 0003:00001180       ?_OptionsStorage@?1??__local_stdio_scanf_options@@9@4_KA 000000018003d180     LIBCMT:default_local_stdio_options.obj
 0003:00001188       __scrt_current_native_startup_state 000000018003d188     LIBCMT:utility.obj
 0003:00001190       __scrt_native_startup_lock 000000018003d190     LIBCMT:utility.obj
 0003:000011d0       __scrt_debugger_hook_flag  000000018003d1d0     LIBCMT:utility_desktop.obj
 0003:000011d4       __favor                    000000018003d1d4     LIBCMT:_cpu_disp_.obj
 0003:000011d8       ?__WinRTOutOfMemoryExceptionCallback@@3P6APEAXXZEA 000000018003d1d8     libvcruntime:ehhelpers.obj
 0003:000011e0       ?pArgList@UnDecorator@@0PEAVReplicator@@EA 000000018003d1e0     libvcruntime:undname.obj
 0003:000011e8       ?pZNameList@UnDecorator@@0PEAVReplicator@@EA 000000018003d1e8     libvcruntime:undname.obj
 0003:000011f0       ?pTemplateArgList@UnDecorator@@0PEAVReplicator@@EA 000000018003d1f0     libvcruntime:undname.obj
 0003:000011f8       ?gName@UnDecorator@@0PEBDEB 000000018003d1f8     libvcruntime:undname.obj
 0003:00001200       ?name@UnDecorator@@0PEBDEB 000000018003d200     libvcruntime:undname.obj
 0003:00001208       ?disableFlags@UnDecorator@@0KA 000000018003d208     libvcruntime:undname.obj
 0003:0000120c       ?fExplicitTemplateParams@UnDecorator@@0_NA 000000018003d20c     libvcruntime:undname.obj
 0003:0000120d       ?fGetTemplateArgumentList@UnDecorator@@0_NA 000000018003d20d     libvcruntime:undname.obj
 0003:00001210       ?m_pGetParameter@UnDecorator@@0P6APEADJ@ZEA 000000018003d210     libvcruntime:undname.obj
 0003:00001218       ?m_CHPENameOffset@UnDecorator@@0KA 000000018003d218     libvcruntime:undname.obj
 0003:0000121c       ?m_recursionLevel@UnDecorator@@0KA 000000018003d21c     libvcruntime:undname.obj
 0003:00001350       __pPurecall                000000018003d350     libvcruntime:purevirt_data.obj
 0003:00001358       _nstream                   000000018003d358     libucrt:_file.obj
 0003:00001360       __piob                     000000018003d360     libucrt:_file.obj
 0003:00001368       _cflush                    000000018003d368     libucrt:_file.obj
 0003:00001388       ?c_exit_complete@?1???R<lambda_6e4b09c48022b2350581041d5f6b0c4c>@@QEBA@XZ@4_NA 000000018003d388     libucrt:exit.obj
 0003:00001498       _environ_table             000000018003d498     libucrt:environment_initialization.obj
 0003:000014a0       _wenviron_table            000000018003d4a0     libucrt:environment_initialization.obj
 0003:000014a8       __dcrt_initial_wide_environment 000000018003d4a8     libucrt:environment_initialization.obj
 0003:000014b0       __dcrt_initial_narrow_environment 000000018003d4b0     libucrt:environment_initialization.obj
 0003:000014b8       __acrt_atexit_table        000000018003d4b8     libucrt:onexit.obj
 0003:000014d0       __acrt_at_quick_exit_table 000000018003d4d0     libucrt:onexit.obj
 0003:000016d0       __pioinfo                  000000018003d6d0     libucrt:ioinit.obj
 0003:00001ad0       _nhandle                   000000018003dad0     libucrt:ioinit.obj
 0003:00001ae8       __acrt_stdout_buffer       000000018003dae8     libucrt:_sftbuf.obj
 0003:00001af0       __acrt_stderr_buffer       000000018003daf0     libucrt:_sftbuf.obj
 0003:00001af8       __acrt_locale_changed_data 000000018003daf8     libucrt:wsetlocale.obj
 0003:00001b00       __acrt_current_locale_data 000000018003db00     libucrt:nlsdata.obj
 0003:00001d50       __acrt_current_multibyte_data 000000018003dd50     libucrt:mbctype.obj
 0003:00001d58       _mbctype                   000000018003dd58     libucrt:mbctype.obj
 0003:00001d60       _mbcasemap                 000000018003dd60     libucrt:mbctype.obj
 0003:00001d70       __argc                     000000018003dd70     libucrt:argv_data.obj
 0003:00001d78       __argv                     000000018003dd78     libucrt:argv_data.obj
 0003:00001d80       __wargv                    000000018003dd80     libucrt:argv_data.obj
 0003:00001d88       _acmdln                    000000018003dd88     libucrt:argv_data.obj
 0003:00001d90       _wcmdln                    000000018003dd90     libucrt:argv_data.obj
 0003:00001d98       _pgmptr                    000000018003dd98     libucrt:argv_data.obj
 0003:00001da0       __acrt_heap                000000018003dda0     libucrt:heap_handle.obj
 0003:00001db4       __acrt_lconv_static_null   000000018003ddb4     libucrt:localeconv.obj
 0003:00001db8       __acrt_lconv_static_W_null 000000018003ddb8     libucrt:localeconv.obj
 0003:00001dc8       __fma3_is_available        000000018003ddc8     libucrt:fma3_available.obj
 0003:00001dcc       __use_fma3_lib             000000018003ddcc     libucrt:fma3_available.obj
 0003:00001dd8       ?DloadKernel32@@3PEAUHINSTANCE__@@EA 000000018003ddd8     DelayImp:delayhlp.obj
 0003:00001de0       ?DloadAcquireSRWLockExclusive@@3P6AXPEA_K@ZEA 000000018003dde0     DelayImp:delayhlp.obj
 0003:00001de8       ?DloadReleaseSRWLockExclusive@@3P6AXPEA_K@ZEA 000000018003dde8     DelayImp:delayhlp.obj
 0003:00001df0       ?DloadSrwLock@@3_KA        000000018003ddf0     DelayImp:delayhlp.obj
 0003:00001df8       ?DloadSectionLockCount@@3KA 000000018003ddf8     DelayImp:delayhlp.obj
 0003:00001dfc       ?DloadSectionOldProtection@@3KA 000000018003ddfc     DelayImp:delayhlp.obj
 0003:00001e00       ?DloadSectionCommitPermanent@@3KA 000000018003de00     DelayImp:delayhlp.obj
 0003:00001e08       ?secp256k1ctx@@3PEAUsecp256k1_context_struct@@EA 000000018003de08     addon.obj
 0003:00001e10       ?noncefn_callback@@3V?$Local@VFunction@v8@@@v8@@A 000000018003de10     ecdsa.obj
 0003:00001e18       __scrt_ucrt_dll_is_in_use  000000018003de18     <common>
 0003:00001e20       __dyn_tls_init_callback    000000018003de20     <common>
 0003:00001e28       ?_OptionsStorage@?1??__local_stdio_printf_options@@9@9 000000018003de28     <common>

 entry point at        0001:00015a54

 Static symbols

 0000:fffbe000       .debug$S                   0000000180000000     kernel32:KERNEL32.dll
 0000:fffbe000       .debug$S                   0000000180000000     node:node.exe
 0000:fffbe000       .debug$S                   0000000180000000     node:node.exe
 0000:fffbe000       .debug$S                   0000000180000000     node:node.exe
 0000:fffbe000       .debug$S                   0000000180000000     node:node.exe
 0000:fffbe000       .debug$S                   0000000180000000     node:node.exe
 0000:fffbe000       .debug$S                   0000000180000000     node:node.exe
 0000:fffbe000       .debug$S                   0000000180000000     node:node.exe
 0000:fffbe000       .debug$S                   0000000180000000     node:node.exe
 0000:fffbe000       .debug$S                   0000000180000000     node:node.exe
 0000:fffbe000       .debug$S                   0000000180000000     node:node.exe
 0000:fffbe000       .debug$S                   0000000180000000     node:node.exe
 0000:fffbe000       .debug$S                   0000000180000000     node:node.exe
 0000:fffbe000       .debug$S                   0000000180000000     node:node.exe
 0000:fffbe000       .debug$S                   0000000180000000     node:node.exe
 0000:fffbe000       .debug$S                   0000000180000000     node:node.exe
 0000:fffbe000       .debug$S                   0000000180000000     node:node.exe
 0000:fffbe000       .debug$S                   0000000180000000     node:node.exe
 0000:fffbe000       .debug$S                   0000000180000000     node:node.exe
 0000:fffbe000       .debug$S                   0000000180000000     node:node.exe
 0000:fffbe000       .debug$S                   0000000180000000     node:node.exe
 0000:fffbe000       .debug$S                   0000000180000000     node:node.exe
 0000:fffbe000       .debug$S                   0000000180000000     node:node.exe
 0000:fffbe000       .debug$S                   0000000180000000     node:node.exe
 0000:fffbe000       .debug$S                   0000000180000000     node:node.exe
 0000:fffbe000       .debug$S                   0000000180000000     node:node.exe
 0000:fffbe000       .debug$S                   0000000180000000     node:node.exe
 0000:fffbe000       .debug$S                   0000000180000000     node:node.exe
 0000:fffbe000       .debug$S                   0000000180000000     node:node.exe
 0000:fffbe000       .debug$S                   0000000180000000     node:node.exe
 0000:fffbe000       .debug$S                   0000000180000000     node:node.exe
 0000:fffbe000       .debug$S                   0000000180000000     node:node.exe
 0000:fffbe000       .debug$S                   0000000180000000     node:node.exe
 0000:fffbe000       .debug$S                   0000000180000000     node:node.exe
 0000:fffbe000       .debug$S                   0000000180000000     node:node.exe
 0000:fffbe000       .debug$S                   0000000180000000     node:node.exe
 0000:fffbe000       .debug$S                   0000000180000000     node:node.exe
 0000:fffbe000       .debug$S                   0000000180000000     node:node.exe
 0000:fffbe000       .debug$S                   0000000180000000     node:node.exe
 0000:fffbe000       .debug$S                   0000000180000000     node:node.exe
 0000:fffbe000       .debug$S                   0000000180000000     node:node.exe
 0000:fffbe000       .debug$S                   0000000180000000     node:node.exe
 0000:fffbe000       .debug$S                   0000000180000000     node:node.exe
 0000:fffbe000       .debug$S                   0000000180000000     node:node.exe
 0000:fffbe000       .debug$S                   0000000180000000     node:node.exe
 0000:fffbe000       .debug$S                   0000000180000000     node:node.exe
 0000:fffbe000       .debug$S                   0000000180000000     node:node.exe
 0000:fffbe000       .debug$S                   0000000180000000     node:node.exe
 0000:fffbe000       .debug$S                   0000000180000000     node:node.exe
 0000:fffbe000       .debug$S                   0000000180000000     node:node.exe
 0000:fffbe000       .debug$S                   0000000180000000     node:node.exe
 0000:fffbe000       .debug$S                   0000000180000000     node:node.exe
 0000:fffbe000       .debug$S                   0000000180000000     node:node.exe
 0000:fffbe000       .debug$S                   0000000180000000     node:node.exe
 0000:fffbe000       .debug$S                   0000000180000000     node:node.exe
 0000:fffbe000       .debug$S                   0000000180000000     node:node.exe
 0000:fffbe000       .debug$S                   0000000180000000     node:node.exe
 0000:fffbe000       .debug$S                   0000000180000000     node:node.exe
 0000:fffbe000       .debug$S                   0000000180000000     node:node.exe
 0000:fffbe000       .debug$S                   0000000180000000     node:node.exe
 0000:fffbe000       .debug$S                   0000000180000000     node:node.exe
 0000:fffbe000       .debug$S                   0000000180000000     node:node.exe
 0000:fffbe000       .debug$S                   0000000180000000     kernel32:KERNEL32.dll
 0000:fffbe000       .debug$S                   0000000180000000     kernel32:KERNEL32.dll
 0000:fffbe000       .debug$S                   0000000180000000     kernel32:KERNEL32.dll
 0000:fffbe000       .debug$S                   0000000180000000     kernel32:KERNEL32.dll
 0000:fffbe000       .debug$S                   0000000180000000     kernel32:KERNEL32.dll
 0000:fffbe000       .debug$S                   0000000180000000     kernel32:KERNEL32.dll
 0000:fffbe000       .debug$S                   0000000180000000     kernel32:KERNEL32.dll
 0000:fffbe000       .debug$S                   0000000180000000     kernel32:KERNEL32.dll
 0000:fffbe000       .debug$S                   0000000180000000     kernel32:KERNEL32.dll
 0000:fffbe000       .debug$S                   0000000180000000     kernel32:KERNEL32.dll
 0000:fffbe000       .debug$S                   0000000180000000     kernel32:KERNEL32.dll
 0000:fffbe000       .debug$S                   0000000180000000     kernel32:KERNEL32.dll
 0000:fffbe000       .debug$S                   0000000180000000     kernel32:KERNEL32.dll
 0000:fffbe000       .debug$S                   0000000180000000     kernel32:KERNEL32.dll
 0000:fffbe000       .debug$S                   0000000180000000     kernel32:KERNEL32.dll
 0000:fffbe000       .debug$S                   0000000180000000     kernel32:KERNEL32.dll
 0000:fffbe000       .debug$S                   0000000180000000     kernel32:KERNEL32.dll
 0000:fffbe000       .debug$S                   0000000180000000     kernel32:KERNEL32.dll
 0000:fffbe000       .debug$S                   0000000180000000     kernel32:KERNEL32.dll
 0000:fffbe000       .debug$S                   0000000180000000     kernel32:KERNEL32.dll
 0000:fffbe000       .debug$S                   0000000180000000     kernel32:KERNEL32.dll
 0000:fffbe000       .debug$S                   0000000180000000     kernel32:KERNEL32.dll
 0000:fffbe000       .debug$S                   0000000180000000     kernel32:KERNEL32.dll
 0000:fffbe000       .debug$S                   0000000180000000     kernel32:KERNEL32.dll
 0000:fffbe000       .debug$S                   0000000180000000     kernel32:KERNEL32.dll
 0000:fffbe000       .debug$S                   0000000180000000     kernel32:KERNEL32.dll
 0000:fffbe000       .debug$S                   0000000180000000     kernel32:KERNEL32.dll
 0000:fffbe000       .debug$S                   0000000180000000     kernel32:KERNEL32.dll
 0000:fffbe000       .debug$S                   0000000180000000     kernel32:KERNEL32.dll
 0000:fffbe000       .debug$S                   0000000180000000     kernel32:KERNEL32.dll
 0000:fffbe000       .debug$S                   0000000180000000     kernel32:KERNEL32.dll
 0000:fffbe000       .debug$S                   0000000180000000     kernel32:KERNEL32.dll
 0000:fffbe000       .debug$S                   0000000180000000     kernel32:KERNEL32.dll
 0000:fffbe000       .debug$S                   0000000180000000     kernel32:KERNEL32.dll
 0000:fffbe000       .debug$S                   0000000180000000     kernel32:KERNEL32.dll
 0000:fffbe000       .debug$S                   0000000180000000     kernel32:KERNEL32.dll
 0000:fffbe000       .debug$S                   0000000180000000     kernel32:KERNEL32.dll
 0000:fffbe000       .debug$S                   0000000180000000     kernel32:KERNEL32.dll
 0000:fffbe000       .debug$S                   0000000180000000     kernel32:KERNEL32.dll
 0000:fffbe000       .debug$S                   0000000180000000     kernel32:KERNEL32.dll
 0000:fffbe000       .debug$S                   0000000180000000     kernel32:KERNEL32.dll
 0000:fffbe000       .debug$S                   0000000180000000     kernel32:KERNEL32.dll
 0000:fffbe000       .debug$S                   0000000180000000     kernel32:KERNEL32.dll
 0000:fffbe000       .debug$S                   0000000180000000     kernel32:KERNEL32.dll
 0000:fffbe000       .debug$S                   0000000180000000     kernel32:KERNEL32.dll
 0000:fffbe000       .debug$S                   0000000180000000     kernel32:KERNEL32.dll
 0000:fffbe000       .debug$S                   0000000180000000     kernel32:KERNEL32.dll
 0000:fffbe000       .debug$S                   0000000180000000     kernel32:KERNEL32.dll
 0000:fffbe000       .debug$S                   0000000180000000     kernel32:KERNEL32.dll
 0000:fffbe000       .debug$S                   0000000180000000     kernel32:KERNEL32.dll
 0000:fffbe000       .debug$S                   0000000180000000     kernel32:KERNEL32.dll
 0000:fffbe000       .debug$S                   0000000180000000     kernel32:KERNEL32.dll
 0000:fffbe000       .debug$S                   0000000180000000     kernel32:KERNEL32.dll
 0000:fffbe000       .debug$S                   0000000180000000     kernel32:KERNEL32.dll
 0000:fffbe000       .debug$S                   0000000180000000     kernel32:KERNEL32.dll
 0000:fffbe000       .debug$S                   0000000180000000     kernel32:KERNEL32.dll
 0000:fffbe000       .debug$S                   0000000180000000     kernel32:KERNEL32.dll
 0000:fffbe000       .debug$S                   0000000180000000     kernel32:KERNEL32.dll
 0000:fffbe000       .debug$S                   0000000180000000     kernel32:KERNEL32.dll
 0000:fffbe000       .debug$S                   0000000180000000     kernel32:KERNEL32.dll
 0000:fffbe000       .debug$S                   0000000180000000     kernel32:KERNEL32.dll
 0000:fffbe000       .debug$S                   0000000180000000     kernel32:KERNEL32.dll
 0000:fffbe000       .debug$S                   0000000180000000     kernel32:KERNEL32.dll
 0000:fffbe000       .debug$S                   0000000180000000     kernel32:KERNEL32.dll
 0000:fffbe000       .debug$S                   0000000180000000     kernel32:KERNEL32.dll
 0000:fffbe000       .debug$S                   0000000180000000     kernel32:KERNEL32.dll
 0000:fffbe000       .debug$S                   0000000180000000     kernel32:KERNEL32.dll
 0000:fffbe000       .debug$S                   0000000180000000     kernel32:KERNEL32.dll
 0000:fffbe000       .debug$S                   0000000180000000     kernel32:KERNEL32.dll
 0000:fffbe000       .debug$S                   0000000180000000     kernel32:KERNEL32.dll
 0000:fffbe000       .debug$S                   0000000180000000     kernel32:KERNEL32.dll
 0000:fffbe000       .debug$S                   0000000180000000     kernel32:KERNEL32.dll
 0000:fffbe000       .debug$S                   0000000180000000     kernel32:KERNEL32.dll
 0000:fffbe000       .debug$S                   0000000180000000     kernel32:KERNEL32.dll
 0000:fffbe000       .debug$S                   0000000180000000     kernel32:KERNEL32.dll
 0000:fffbe000       .debug$S                   0000000180000000     kernel32:KERNEL32.dll
 0000:fffbe000       .debug$S                   0000000180000000     kernel32:KERNEL32.dll
 0000:fffbe000       .debug$S                   0000000180000000     kernel32:KERNEL32.dll
 0000:fffbe000       .debug$S                   0000000180000000     kernel32:KERNEL32.dll
 0000:fffbe000       .debug$S                   0000000180000000     kernel32:KERNEL32.dll
 0000:fffbe000       .debug$S                   0000000180000000     kernel32:KERNEL32.dll
 0000:fffbe000       .debug$S                   0000000180000000     kernel32:KERNEL32.dll
 0000:fffbe000       .debug$S                   0000000180000000     kernel32:KERNEL32.dll
 0000:fffbe000       .debug$S                   0000000180000000     kernel32:KERNEL32.dll
 0000:fffbe000       .debug$S                   0000000180000000     kernel32:KERNEL32.dll
 0000:fffbe000       .debug$S                   0000000180000000     secp256k1.exp
 0001:00000000       ??__Enoncefn_callback@@YAXXZ 0000000180001000 f   ecdsa.obj
 0001:00000010       ?FunctionCallbackWrapper@imp@Nan@@YAXAEBV?$FunctionCallbackInfo@VValue@v8@@@v8@@@Z 0000000180001010 f   addon.obj
 0001:00000670       _register_secp256k1        0000000180001670 f   addon.obj
 0001:00000830       secp256k1_scalar_check_overflow 0000000180001830 f   secp256k1.obj
 0001:00000830       ?secp256k1_scalar_check_overflow@@YAHPEBUsecp256k1_scalar@@@Z 0000000180001830 f   privatekey.obj
 0001:00000920       ?secp256k1_scalar_set_b32@@YAXPEAUsecp256k1_scalar@@PEBEPEAH@Z 0000000180001920 f   privatekey.obj
 0001:00000920       secp256k1_scalar_set_b32   0000000180001920 f   secp256k1.obj
 0001:00000b20       ?secp256k1_scalar_reduce_512@@YAXPEAUsecp256k1_scalar@@PEBI@Z 0000000180001b20 f   privatekey.obj
 0001:00000b20       secp256k1_scalar_reduce_512 0000000180001b20 f   secp256k1.obj
 0001:000015b0       secp256k1_scalar_mul_512   00000001800025b0 f   secp256k1.obj
 0001:000015b0       ?secp256k1_scalar_mul_512@@YAXPEAIPEBUsecp256k1_scalar@@1@Z 00000001800025b0 f   privatekey.obj
 0001:00001f00       ?secp256k1_scalar_sqr_512@@YAXPEAIPEBUsecp256k1_scalar@@@Z 0000000180002f00 f   privatekey.obj
 0001:00001f00       secp256k1_scalar_sqr_512   0000000180002f00 f   secp256k1.obj
 0001:00002820       ?secp256k1_scalar_inverse@@YAXPEAUsecp256k1_scalar@@PEBU1@@Z 0000000180003820 f   privatekey.obj
 0001:00002820       secp256k1_scalar_inverse   0000000180003820 f   secp256k1.obj
 0001:00007030       secp256k1_fe_normalize     0000000180008030 f   secp256k1.obj
 0001:00007240       secp256k1_fe_normalize_weak 0000000180008240 f   secp256k1.obj
 0001:00007340       secp256k1_fe_normalize_var 0000000180008340 f   secp256k1.obj
 0001:00007540       secp256k1_fe_normalizes_to_zero 0000000180008540 f   secp256k1.obj
 0001:00007680       secp256k1_fe_normalizes_to_zero_var 0000000180008680 f   secp256k1.obj
 0001:00007800       secp256k1_fe_set_b32       0000000180008800 f   secp256k1.obj
 0001:00007a20       secp256k1_fe_get_b32       0000000180008a20 f   secp256k1.obj
 0001:00007ba0       secp256k1_fe_negate        0000000180008ba0 f   secp256k1.obj
 0001:00007c50       secp256k1_fe_mul_inner     0000000180008c50 f   secp256k1.obj
 0001:00008480       secp256k1_fe_sqr_inner     0000000180009480 f   secp256k1.obj
 0001:00008a00       secp256k1_fe_cmov          0000000180009a00 f   secp256k1.obj
 0001:00008ad0       secp256k1_fe_from_storage  0000000180009ad0 f   secp256k1.obj
 0001:00008ba0       secp256k1_fe_sqrt          0000000180009ba0 f   secp256k1.obj
 0001:00009050       secp256k1_fe_inv           000000018000a050 f   secp256k1.obj
 0001:00009490       secp256k1_scalar_add       000000018000a490 f   secp256k1.obj
 0001:00009630       secp256k1_scalar_get_b32   000000018000a630 f   secp256k1.obj
 0001:00009720       secp256k1_scalar_negate    000000018000a720 f   secp256k1.obj
 0001:00009850       secp256k1_scalar_is_high   000000018000a850 f   secp256k1.obj
 0001:00009940       secp256k1_scalar_cond_negate 000000018000a940 f   secp256k1.obj
 0001:00009ae0       secp256k1_ge_set_gej       000000018000aae0 f   secp256k1.obj
 0001:00009bc0       secp256k1_ge_globalz_set_table_gej 000000018000abc0 f   secp256k1.obj
 0001:00009d30       secp256k1_ge_set_xo_var    000000018000ad30 f   secp256k1.obj
 0001:00009dd0       secp256k1_gej_eq_x_var     000000018000add0 f   secp256k1.obj
 0001:00009ee0       secp256k1_gej_neg          000000018000aee0 f   secp256k1.obj
 0001:00009fb0       secp256k1_gej_double_var   000000018000afb0 f   secp256k1.obj
 0001:0000a4a0       secp256k1_gej_add_var      000000018000b4a0 f   secp256k1.obj
 0001:0000a9f0       secp256k1_gej_add_ge_var   000000018000b9f0 f   secp256k1.obj
 0001:0000af90       secp256k1_gej_add_zinv_var 000000018000bf90 f   secp256k1.obj
 0001:0000b4a0       secp256k1_gej_add_ge       000000018000c4a0 f   secp256k1.obj
 0001:0000beb0       secp256k1_ge_to_storage    000000018000ceb0 f   secp256k1.obj
 0001:0000c030       secp256k1_ge_storage_cmov  000000018000d030 f   secp256k1.obj
 0001:0000c170       secp256k1_ecmult_odd_multiples_table 000000018000d170 f   secp256k1.obj
 0001:0000c320       secp256k1_ecmult_odd_multiples_table_storage_var 000000018000d320 f   secp256k1.obj
 0001:0000c840       secp256k1_ecmult_wnaf      000000018000d840 f   secp256k1.obj
 0001:0000c9b0       secp256k1_ecmult_strauss_wnaf 000000018000d9b0 f   secp256k1.obj
 0001:0000cef0       secp256k1_wnaf_const       000000018000def0 f   secp256k1.obj
 0001:0000d220       secp256k1_ecmult_const     000000018000e220 f   secp256k1.obj
 0001:0000e290       secp256k1_sha256_transform 000000018000f290 f   secp256k1.obj
 0001:000108a0       secp256k1_sha256_write     00000001800118a0 f   secp256k1.obj
 0001:00010960       secp256k1_sha256_finalize  0000000180011960 f   secp256k1.obj
 0001:00010c60       secp256k1_hmac_sha256_initialize 0000000180011c60 f   secp256k1.obj
 0001:00010ed0       secp256k1_hmac_sha256_finalize 0000000180011ed0 f   secp256k1.obj
 0001:00010fb0       secp256k1_rfc6979_hmac_sha256_initialize 0000000180011fb0 f   secp256k1.obj
 0001:00011220       secp256k1_rfc6979_hmac_sha256_generate 0000000180012220 f   secp256k1.obj
 0001:00011450       secp256k1_ecmult_gen_context_build 0000000180012450 f   secp256k1.obj
 0001:00011b40       secp256k1_ecmult_gen       0000000180012b40 f   secp256k1.obj
 0001:00011ef0       secp256k1_ecmult_gen_blind 0000000180012ef0 f   secp256k1.obj
 0001:000122d0       secp256k1_der_read_len     00000001800132d0 f   secp256k1.obj
 0001:00012370       secp256k1_der_parse_integer 0000000180013370 f   secp256k1.obj
 0001:000124b0       secp256k1_eckey_pubkey_parse 00000001800134b0 f   secp256k1.obj
 0001:00012740       default_illegal_callback_fn 0000000180013740 f   secp256k1.obj
 0001:00012770       default_error_callback_fn  0000000180013770 f   secp256k1.obj
 0001:000127a0       secp256k1_pubkey_load      00000001800137a0 f   secp256k1.obj
 0001:00013470       nonce_function_rfc6979     0000000180014470 f   secp256k1.obj
 0001:00013fa0       ecdh_hash_function_sha256  0000000180014fa0 f   secp256k1.obj
 0001:000153b0       ?load_exe_hook@@YAP6A_JXZIPEAUDelayLoadInfo@@@Z 00000001800163b0 f   win_delay_load_hook.obj
 0001:000156e0       $$000000                   00000001800166e0     LIBCMT:_amdsecgs_.obj
 0001:00015724       ?dllmain_crt_dispatch@@YAHQEAUHINSTANCE__@@KQEAX@Z 0000000180016724 f   LIBCMT:dll_dllmain.obj
 0001:00015774       ?dllmain_crt_process_attach@@YAHQEAUHINSTANCE__@@QEAX@Z 0000000180016774 f   LIBCMT:dll_dllmain.obj
 0001:00015890       ?dllmain_crt_process_detach@@YAH_N@Z 0000000180016890 f   LIBCMT:dll_dllmain.obj
 0001:00015920       ?dllmain_dispatch@@YAHQEAUHINSTANCE__@@KQEAX@Z 0000000180016920 f   LIBCMT:dll_dllmain.obj
 0001:00015c4c       capture_current_context    0000000180016c4c f   LIBCMT:gs_report.obj
 0001:00015cbc       capture_previous_context   0000000180016cbc f   LIBCMT:gs_report.obj
 0001:00016a50       $$000000                   0000000180017a50     libvcruntime:memset.obj
 0001:00016b4c       MsetTab                    0000000180017b4c     libvcruntime:memset.obj
 0001:00016d90       $$000000                   0000000180017d90     libvcruntime:_notify_.obj
 0001:00017174       ?try_get_function@@YAPEAXW4function_id@?A0xcc2f1bd3@@QEBDQEBW4module_id@2@2@Z 0000000180018174 f   libvcruntime:winapi_downlevel.obj
 0001:00017b50       $$000000                   0000000180018b50     libvcruntime:memcpy.obj
 0001:00017c07       MoveSmall                  0000000180018c07     libvcruntime:memcpy.obj
 0001:000180c4       ??$BuildCatchObjectHelperInternal@$$CBU_s_HandlerType@@@@YAHPEAUEHExceptionRecord@@PEAXPEBU_s_HandlerType@@PEBU_s_CatchableType@@@Z 00000001800190c4 f   libvcruntime:frame.obj
 0001:000182c4       ??$BuildCatchObjectInternal@$$CBU_s_HandlerType@@@@YAXPEAUEHExceptionRecord@@PEAXPEBU_s_HandlerType@@PEBU_s_CatchableType@@@Z 00000001800192c4 f   libvcruntime:frame.obj
 0001:00018384       ??$CatchIt@V__FrameHandler3@@@@YAXPEAUEHExceptionRecord@@PEA_KPEAU_CONTEXT@@PEAU_xDISPATCHER_CONTEXT@@PEBU_s_FuncInfo@@PEBU_s_HandlerType@@PEBU_s_CatchableType@@PEBU_s_TryBlockMapEntry@@H1EE@Z 0000000180019384 f   libvcruntime:frame.obj
 0001:00018454       ??$FindHandler@V__FrameHandler3@@@@YAXPEAUEHExceptionRecord@@PEA_KPEAU_CONTEXT@@PEAU_xDISPATCHER_CONTEXT@@PEBU_s_FuncInfo@@EH1@Z 0000000180019454 f   libvcruntime:frame.obj
 0001:000188b8       ??$FindHandlerForForeignException@V__FrameHandler3@@@@YAXPEAUEHExceptionRecord@@PEA_KPEAU_CONTEXT@@PEAU_xDISPATCHER_CONTEXT@@PEBU_s_FuncInfo@@HH1@Z 00000001800198b8 f   libvcruntime:frame.obj
 0001:000190c0       ?ExFilterRethrow@@YAHPEAU_EXCEPTION_POINTERS@@PEAUEHExceptionRecord@@PEAH@Z 000000018001a0c0 f   libvcruntime:frame.obj
 0001:00019374       ?IsInExceptionSpec@@YAEPEAUEHExceptionRecord@@PEBU_s_ESTypeList@@@Z 000000018001a374 f   libvcruntime:frame.obj
 0001:0001944c       ?Is_bad_exception_allowed@@YAEPEBU_s_ESTypeList@@@Z 000000018001a44c f   libvcruntime:frame.obj
 0001:00019500       $$000000                   000000018001a500     libvcruntime:handlers.obj
 0001:000195a8       ??$common_assert_to_message_box@_W@@YAXQEB_W0IQEAX@Z 000000018001a5a8 f   libucrt:assert.obj
 0001:0001966c       ??$common_assert_to_message_box_build_string@_W@@YAXQEA_W_KQEB_W2IQEAX@Z 000000018001a66c f   libucrt:assert.obj
 0001:00019e30       ??$common_assert_to_stderr@_W@@YAXQEB_W0I@Z 000000018001ae30 f   libucrt:assert.obj
 0001:00019fa0       ?get_assert_format@@YAPEB_W_W@Z 000000018001afa0 f   libucrt:assert.obj
 0001:0001a2c4       ??$?RV<lambda_0d412022a4b28cc8a401ea49574e8ae6>@@AEAV<lambda_a775ed57af18ba8e4d5dc780aa9068fe>@@V<lambda_975a71a6baa488a08f4e15f6b0339b9e>@@@?$__crt_seh_guarded_call@H@@QEAAH$$QEAV<lambda_0d412022a4b28cc8a401ea49574e8ae6>@@AEAV<lambda_a775ed57af18ba8e4d5dc780aa9068fe>@@$$QEAV<lambda_975a71a6baa488a08f4e15f6b0339b9e>@@@Z 000000018001b2c4 f   libucrt:output.obj
 0001:0001a304       ??$?RV<lambda_a62c933ada0517137acf5807a1eeac1f>@@AEAV<lambda_a31071773b9a94e445cbd5d04ef99106>@@V<lambda_56065050dbf3ada7e59a83db45153de3>@@@?$__crt_seh_guarded_call@H@@QEAAH$$QEAV<lambda_a62c933ada0517137acf5807a1eeac1f>@@AEAV<lambda_a31071773b9a94e445cbd5d04ef99106>@@$$QEAV<lambda_56065050dbf3ada7e59a83db45153de3>@@@Z 000000018001b304 f   libucrt:output.obj
 0001:0001a344       ??$common_vsprintf@Vstandard_base@__crt_stdio_output@@_W@@YAH_KQEA_W0QEB_WQEAU__crt_locale_pointers@@QEAD@Z 000000018001b344 f   libucrt:output.obj
 0001:0001ab60       ??R<lambda_a31071773b9a94e445cbd5d04ef99106>@@QEBAHXZ 000000018001bb60 f   libucrt:output.obj
 0001:0001ac90       ??R<lambda_a775ed57af18ba8e4d5dc780aa9068fe>@@QEBAHXZ 000000018001bc90 f   libucrt:output.obj
 0001:0001dbdc       ??$?RV<lambda_d80eeec6fff315bfe5c115232f3240e3>@@AEAV<lambda_6e4b09c48022b2350581041d5f6b0c4c>@@V<lambda_2358e3775559c9db80273638284d5e45>@@@?$__crt_seh_guarded_call@X@@QEAAX$$QEAV<lambda_d80eeec6fff315bfe5c115232f3240e3>@@AEAV<lambda_6e4b09c48022b2350581041d5f6b0c4c>@@$$QEAV<lambda_2358e3775559c9db80273638284d5e45>@@@Z 000000018001ebdc f   libucrt:exit.obj
 0001:0001dc14       ??R<lambda_6e4b09c48022b2350581041d5f6b0c4c>@@QEBA@XZ 000000018001ec14 f   libucrt:exit.obj
 0001:0001dcec       ?atexit_exception_filter@@YAHK@Z 000000018001ecec f   libucrt:exit.obj
 0001:0001dcf8       ?common_exit@@YAXHW4_crt_exit_cleanup_mode@@W4_crt_exit_return_mode@@@Z 000000018001ecf8 f   libucrt:exit.obj
 0001:0001ddb4       ?exit_or_terminate_process@@YAXI@Z 000000018001edb4 f   libucrt:exit.obj
 0001:0001de00       ?try_cor_exit_process@@YAXI@Z 000000018001ee00 f   libucrt:exit.obj
 0001:0001de88       ??$parse_command_line@D@@YAXPEADPEAPEAD0PEA_K2@Z 000000018001ee88 f   libucrt:argv_parsing.obj
 0001:0001e234       ??$common_initialize_environment_nolock@D@@YAHXZ 000000018001f234 f   libucrt:environment_initialization.obj
 0001:0001e2a0       ??$create_environment@D@@YAQEAPEADQEAD@Z 000000018001f2a0 f   libucrt:environment_initialization.obj
 0001:0001e3a8       ??$free_environment@D@@YAXQEAPEAD@Z 000000018001f3a8 f   libucrt:environment_initialization.obj
 0001:0001e3a8       ??$free_environment@_W@@YAXQEAPEA_W@Z 000000018001f3a8 f   libucrt:environment_initialization.obj
 0001:0001e3ec       ??$uninitialize_environment_internal@D@@YAXAEAPEAPEAD@Z 000000018001f3ec f   libucrt:environment_initialization.obj
 0001:0001e408       ??$uninitialize_environment_internal@_W@@YAXAEAPEAPEA_W@Z 000000018001f408 f   libucrt:environment_initialization.obj
 0001:0001e464       ??$?RV<lambda_7777bce6b2f8c936911f934f8298dc43>@@AEAV<lambda_f03950bc5685219e0bcd2087efbe011e>@@V<lambda_3883c3dff614d5e0c5f61bb1ac94921c>@@@?$__crt_seh_guarded_call@H@@QEAAH$$QEAV<lambda_7777bce6b2f8c936911f934f8298dc43>@@AEAV<lambda_f03950bc5685219e0bcd2087efbe011e>@@$$QEAV<lambda_3883c3dff614d5e0c5f61bb1ac94921c>@@@Z 000000018001f464 f   libucrt:onexit.obj
 0001:0001e4a0       ??R<lambda_f03950bc5685219e0bcd2087efbe011e>@@QEBAHXZ 000000018001f4a0 f   libucrt:onexit.obj
 0001:0001e668       initialize_global_variables 000000018001f668 f   libucrt:initialization.obj
 0001:0001e67c       initialize_c               000000018001f67c f   libucrt:initialization.obj
 0001:0001e6a0       report_memory_leaks        000000018001f6a0 f   libucrt:initialization.obj
 0001:0001e6a0       uninitialize_global_state_isolation 000000018001f6a0 f   libucrt:initialization.obj
 0001:0001e6a0       uninitialize_c             000000018001f6a0 f   libucrt:initialization.obj
 0001:0001e6a0       initialize_global_state_isolation 000000018001f6a0 f   libucrt:initialization.obj
 0001:0001e6a0       initialize_environment     000000018001f6a0 f   libucrt:initialization.obj
 0001:0001e6a4       uninitialize_environment   000000018001f6a4 f   libucrt:initialization.obj
 0001:0001e6b4       initialize_pointers        000000018001f6b4 f   libucrt:initialization.obj
 0001:0001e708       uninitialize_vcruntime     000000018001f708 f   libucrt:initialization.obj
 0001:0001e710       uninitialize_allocated_memory 000000018001f710 f   libucrt:initialization.obj
 0001:0001e750       uninitialize_allocated_io_buffers 000000018001f750 f   libucrt:initialization.obj
 0001:0001f2b0       $$000000                   00000001800202b0     libucrt:strncmp.obj
 0001:0001f6d0       ??$common_xtox@K_W@@YAHKQEA_W_KI_N@Z 00000001800206d0 f   libucrt:xtoa.obj
 0001:0001f794       ??$common_xtox_s@K_W@@YAHKQEA_W_KI_N@Z 0000000180020794 f   libucrt:xtoa.obj
 0001:0001fb98       ??$?RV<lambda_842d9ff0dc9ef11c61343bbaebe7f885>@@AEAV<lambda_c5860995281e5c4ce005b3de8f5874ee>@@V<lambda_d90129c13df834fdcbf8d2b88dafcf2d>@@@?$__crt_seh_guarded_call@X@@QEAAX$$QEAV<lambda_842d9ff0dc9ef11c61343bbaebe7f885>@@AEAV<lambda_c5860995281e5c4ce005b3de8f5874ee>@@$$QEAV<lambda_d90129c13df834fdcbf8d2b88dafcf2d>@@@Z 0000000180020b98 f   libucrt:fflush.obj
 0001:0001fc34       ??$?RV<lambda_886d6c58226a84441f68b9f2b8217b83>@@AEAV<lambda_ab61a845afdef5b7c387490eaf3616ee>@@V<lambda_f7f22ab5edc0698d5f6905b0d3f44752>@@@?$__crt_seh_guarded_call@X@@QEAAX$$QEAV<lambda_886d6c58226a84441f68b9f2b8217b83>@@AEAV<lambda_ab61a845afdef5b7c387490eaf3616ee>@@$$QEAV<lambda_f7f22ab5edc0698d5f6905b0d3f44752>@@@Z 0000000180020c34 f   libucrt:fflush.obj
 0001:0001fd14       ??$?RV<lambda_c376a267cfb53b6959b3b692ec76b120>@@AEAV<lambda_9a32fed5bf61b6b509b2d3f6003082a1>@@V<lambda_572fbb9fa0ab338edf41edfd4b5fcc8d>@@@?$__crt_seh_guarded_call@H@@QEAAH$$QEAV<lambda_c376a267cfb53b6959b3b692ec76b120>@@AEAV<lambda_9a32fed5bf61b6b509b2d3f6003082a1>@@$$QEAV<lambda_572fbb9fa0ab338edf41edfd4b5fcc8d>@@@Z 0000000180020d14 f   libucrt:fflush.obj
 0001:0001fd54       ?common_flush_all@@YAH_N@Z 0000000180020d54 f   libucrt:fflush.obj
 0001:0001feec       ??$?RV<lambda_84ec643ea9557e2f7dc01bb0e9624395>@@AEAV<lambda_ca71763b3c0644891230e4f79ea54fa6>@@V<lambda_439a761618c59b0600e24586724d733b>@@@?$__crt_seh_guarded_call@H@@QEAAH$$QEAV<lambda_84ec643ea9557e2f7dc01bb0e9624395>@@AEAV<lambda_ca71763b3c0644891230e4f79ea54fa6>@@$$QEAV<lambda_439a761618c59b0600e24586724d733b>@@@Z 0000000180020eec f   libucrt:setvbuf.obj
 0001:0001ff2c       ??R<lambda_ca71763b3c0644891230e4f79ea54fa6>@@QEBAHXZ 0000000180020f2c f   libucrt:setvbuf.obj
 0001:000200b8       ??$?RV<lambda_450d765d439847d4c735a33c368b5fc0>@@AEAV<lambda_44731a7d0e6d81c3e6aa82d741081786>@@V<lambda_601a2a7da3b7a96e9554ac7215c4b07c>@@@?$__crt_seh_guarded_call@P6AXH@Z@@QEAAP6AXH@Z$$QEAV<lambda_450d765d439847d4c735a33c368b5fc0>@@AEAV<lambda_44731a7d0e6d81c3e6aa82d741081786>@@$$QEAV<lambda_601a2a7da3b7a96e9554ac7215c4b07c>@@@Z 00000001800210b8 f   libucrt:signal.obj
 0001:00020488       ?try_get_function@@YAPEAXW4function_id@?A0x391cf84c@@QEBDQEBW4module_id@2@2@Z 0000000180021488 f   libucrt:winapi_thunks.obj
 0001:00020db4       ?initialize_inherited_file_handles_nolock@@YAXXZ 0000000180021db4 f   libucrt:ioinit.obj
 0001:00020ea0       ?initialize_stdio_handles_nolock@@YAXXZ 0000000180021ea0 f   libucrt:ioinit.obj
 0001:00021090       ?internal_isupper_l@@YA_NHQEAU__crt_locale_pointers@@@Z 0000000180022090 f   libucrt:tolower_toupper.obj
 0001:00021948       ??$?RV<lambda_0ae27a3a962d80f24befdcbee591983d>@@AEAV<lambda_8d0ee55de4b1038c4002e0adecdf1839>@@V<lambda_dc504788e8f1664fe9b84e20bfb512f2>@@@?$__crt_seh_guarded_call@X@@QEAAX$$QEAV<lambda_0ae27a3a962d80f24befdcbee591983d>@@AEAV<lambda_8d0ee55de4b1038c4002e0adecdf1839>@@$$QEAV<lambda_dc504788e8f1664fe9b84e20bfb512f2>@@@Z 0000000180022948 f   libucrt:per_thread_data.obj
 0001:00021988       ??$?RV<lambda_2d41944a1d46af3157314b8a01080d33>@@AEAV<lambda_8f455de75cd7d7f24b4096f044d8b9e6>@@V<lambda_aa500f224e6afead328df44964fe2772>@@@?$__crt_seh_guarded_call@X@@QEAAX$$QEAV<lambda_2d41944a1d46af3157314b8a01080d33>@@AEAV<lambda_8f455de75cd7d7f24b4096f044d8b9e6>@@$$QEAV<lambda_aa500f224e6afead328df44964fe2772>@@@Z 0000000180022988 f   libucrt:per_thread_data.obj
 0001:000219c8       ??$?RV<lambda_aa87e3671a710a21b5dc78c0bdf72e11>@@AEAV<lambda_92619d2358a28f41a33ba319515a20b9>@@V<lambda_6992ecaafeb10aed2b74cb1fae11a551>@@@?$__crt_seh_guarded_call@X@@QEAAX$$QEAV<lambda_aa87e3671a710a21b5dc78c0bdf72e11>@@AEAV<lambda_92619d2358a28f41a33ba319515a20b9>@@$$QEAV<lambda_6992ecaafeb10aed2b74cb1fae11a551>@@@Z 00000001800229c8 f   libucrt:per_thread_data.obj
 0001:00021a10       ??$?RV<lambda_f2e299630e499de9f9a165e60fcd3db5>@@AEAV<lambda_2ae9d31cdba2644fcbeaf08da7c24588>@@V<lambda_40d01ff24d0e7b3814fdbdcee8eab3c7>@@@?$__crt_seh_guarded_call@X@@QEAAX$$QEAV<lambda_f2e299630e499de9f9a165e60fcd3db5>@@AEAV<lambda_2ae9d31cdba2644fcbeaf08da7c24588>@@$$QEAV<lambda_40d01ff24d0e7b3814fdbdcee8eab3c7>@@@Z 0000000180022a10 f   libucrt:per_thread_data.obj
 0001:00021a70       ?construct_ptd_array@@YAXQEAU__acrt_ptd@@@Z 0000000180022a70 f   libucrt:per_thread_data.obj
 0001:00021b40       ?destroy_fls@@YAXPEAX@Z    0000000180022b40 f   libucrt:per_thread_data.obj
 0001:00021b60       ?destroy_ptd_array@@YAXQEAU__acrt_ptd@@@Z 0000000180022b60 f   libucrt:per_thread_data.obj
 0001:00021c58       ?replace_current_thread_locale_nolock@@YAXQEAU__acrt_ptd@@QEAU__crt_locale_data@@@Z 0000000180022c58 f   libucrt:per_thread_data.obj
 0001:00021ff0       ?fp_format_a@@YAHQEBNPEAD_KQEAD2H_NIQEAU__crt_locale_pointers@@@Z 0000000180022ff0 f   libucrt:cvt.obj
 0001:00022358       ?fp_format_e@@YAHQEBNQEAD_K12H_NIQEAU__crt_locale_pointers@@@Z 0000000180023358 f   libucrt:cvt.obj
 0001:00022434       ?fp_format_e_internal@@YAHQEAD_KH_NIQEAU_strflt@@2QEAU__crt_locale_pointers@@@Z 0000000180023434 f   libucrt:cvt.obj
 0001:00022608       ?fp_format_f_internal@@YAHQEAD_KHQEAU_strflt@@_NQEAU__crt_locale_pointers@@@Z 0000000180023608 f   libucrt:cvt.obj
 0001:0002274c       ?fp_format_g@@YAHQEBNQEAD_K12H_NIQEAU__crt_locale_pointers@@@Z 000000018002374c f   libucrt:cvt.obj
 0001:00022880       ?fp_format_nan_or_infinity@@YAHW4__acrt_fp_class@@_NPEAD_K1@Z 0000000180023880 f   libucrt:cvt.obj
 0001:00022f24       ??$?RV<lambda_410d79af7f07d98d83a3f525b3859a53>@@AEAV<lambda_3e16ef9562a7dcce91392c22ab16ea36>@@V<lambda_38119f0e861e05405d8a144b9b982f0a>@@@?$__crt_seh_guarded_call@X@@QEAAX$$QEAV<lambda_410d79af7f07d98d83a3f525b3859a53>@@AEAV<lambda_3e16ef9562a7dcce91392c22ab16ea36>@@$$QEAV<lambda_38119f0e861e05405d8a144b9b982f0a>@@@Z 0000000180023f24 f   libucrt:wsetlocale.obj
 0001:00023184       ?<lambda_invoker_cdecl>@<lambda_c2303d2482d7c3675ea2e24c4cfb6115>@@CAHPEBX0@Z 0000000180024184 f   libucrt:argv_wildcards.obj
 0001:00023198       ??$common_expand_argv_wildcards@D@@YAHQEAPEADQEAPEAPEAD@Z 0000000180024198 f   libucrt:argv_wildcards.obj
 0001:000233a4       ??$copy_and_add_argument_to_buffer@D@@YAHQEBD0_KAEAV?$argument_list@D@?A0x5f5c8891@@@Z 00000001800243a4 f   libucrt:argv_wildcards.obj
 0001:00023540       ??$expand_argument_wildcards@D@@YAHQEAD0AEAV?$argument_list@D@?A0x5f5c8891@@@Z 0000000180024540 f   libucrt:argv_wildcards.obj
 0001:000236f4       ??$?RV<lambda_efdfa57d1f175319df784efa44bb7b81>@@AEAV<lambda_5f0a4c1567f8adc6734073e5d1e1b35c>@@V<lambda_2e8a7d3640ea6ccb4c2413664c2db6fd>@@@?$__crt_seh_guarded_call@X@@QEAAX$$QEAV<lambda_efdfa57d1f175319df784efa44bb7b81>@@AEAV<lambda_5f0a4c1567f8adc6734073e5d1e1b35c>@@$$QEAV<lambda_2e8a7d3640ea6ccb4c2413664c2db6fd>@@@Z 00000001800246f4 f   libucrt:mbctype.obj
 0001:000238b0       ?getSystemCP@@YAHH@Z       00000001800248b0 f   libucrt:mbctype.obj
 0001:00023930       ?setSBCS@@YAXPEAU__crt_multibyte_data@@@Z 0000000180024930 f   libucrt:mbctype.obj
 0001:000239c0       ?setSBUpLow@@YAXPEAU__crt_multibyte_data@@@Z 00000001800249c0 f   libucrt:mbctype.obj
 0001:00023ba4       ?setmbcp_internal@@YAHH_NQEAU__acrt_ptd@@QEAPEAU__crt_multibyte_data@@@Z 0000000180024ba4 f   libucrt:mbctype.obj
 0001:00023d68       ?update_thread_multibyte_data_internal@@YAPEAU__crt_multibyte_data@@QEAU__acrt_ptd@@QEAPEAU1@@Z 0000000180024d68 f   libucrt:mbctype.obj
 0001:00024154       ?x_ismbbtype_l@@YAHPEAU__crt_locale_pointers@@IHH@Z 0000000180025154 f   libucrt:ismbbyte.obj
 0001:00024790       ?_mbstowcs_l_helper@@YA_KPEA_WPEBD_KPEAU__crt_locale_pointers@@@Z 0000000180025790 f   libucrt:mbstowcs.obj
 0001:000249b8       ??$?RV<lambda_a37b2b86f63e897a80ea819b0eb08c01>@@AEAV<lambda_38ce7e780aa69e748d6df282ebc68efe>@@V<lambda_99fb1378e971ab6e7edea83e3a7a83a2>@@@?$__crt_seh_guarded_call@H@@QEAAH$$QEAV<lambda_a37b2b86f63e897a80ea819b0eb08c01>@@AEAV<lambda_38ce7e780aa69e748d6df282ebc68efe>@@$$QEAV<lambda_99fb1378e971ab6e7edea83e3a7a83a2>@@@Z 00000001800259b8 f   libucrt:commit.obj
 0001:00024ad8       ?write_double_translated_ansi_nolock@@YA?AUwrite_result@?A0x17268360@@HQEBDI@Z 0000000180025ad8 f   libucrt:write.obj
 0001:00024cf0       ?write_text_ansi_nolock@@YA?AUwrite_result@?A0x17268360@@HQEBDI@Z 0000000180025cf0 f   libucrt:write.obj
 0001:00024df4       ?write_text_utf16le_nolock@@YA?AUwrite_result@?A0x17268360@@HQEBDI@Z 0000000180025df4 f   libucrt:write.obj
 0001:00024f10       ?write_text_utf8_nolock@@YA?AUwrite_result@?A0x17268360@@HQEBDI@Z 0000000180025f10 f   libucrt:write.obj
 0001:00025454       ?GetTableIndexFromLocaleName@@YAHPEB_W@Z 0000000180026454 f   libucrt:lcidtoname_downlevel.obj
 0001:000259a4       ?__acrt_LCMapStringA_stat@@YAHPEAU__crt_locale_pointers@@PEB_WKPEBDHPEADHHH@Z 00000001800269a4 f   libucrt:lcmapstringa.obj
 0001:00027b68       memcpy_s                   0000000180028b68 f   libucrt:cfout.obj
 0001:00027bf0       ??$write_buffer_nolock@D@@YA_NDV__crt_stdio_stream@@@Z 0000000180028bf0 f   libucrt:_flsbuf.obj
 0001:00027cd0       ??$write_buffer_nolock@_W@@YA_N_WV__crt_stdio_stream@@@Z 0000000180028cd0 f   libucrt:_flsbuf.obj
 0001:00028160       ?free_crt_array_internal@@YAXQEAPEBX_K@Z 0000000180029160 f   libucrt:inittime.obj
 0001:000288e8       fallbackMethod             00000001800298e8 f   libucrt:strpbrk.obj
 0001:00028cb4       $LN78                      0000000180029cb4     libucrt:strpbrk.obj
 0001:00028cf0       $LN77                      0000000180029cf0     libucrt:strpbrk.obj
 0001:00028d30       $LN76                      0000000180029d30     libucrt:strpbrk.obj
 0001:000291b8       ?initialize_multibyte@@YAHXZ 000000018002a1b8 f   libucrt:multibyte_initializer.obj
 0001:00029298       ??$common_lseek@_J@@YA_JH_JH@Z 000000018002a298 f   libucrt:lseek.obj
 0001:00029388       ??$common_lseek_nolock@_J@@YA_JH_JH@Z 000000018002a388 f   libucrt:lseek.obj
 0001:00029470       ??$?RV<lambda_751a882b2c74d4b022dec766aa51a29a>@@AEAV<lambda_628dfdc04ba53c8bfc02c9951375f3f5>@@V<lambda_f6c7be5f7998530c34de24c7437d6b54>@@@?$__crt_seh_guarded_call@H@@QEAAH$$QEAV<lambda_751a882b2c74d4b022dec766aa51a29a>@@AEAV<lambda_628dfdc04ba53c8bfc02c9951375f3f5>@@$$QEAV<lambda_f6c7be5f7998530c34de24c7437d6b54>@@@Z 000000018002a470 f   libucrt:close.obj
 0001:000299e0       $$000000                   000000018002a9e0     libucrt:log10.obj
 0001:00029ff4       ?_wcstombs_l_helper@@YA_KPEADPEB_W_KPEAU__crt_locale_pointers@@@Z 000000018002aff4 f   libucrt:wcstombs.obj
 0001:0002a828       _call_matherr              000000018002b828 f   libucrt:libm_error.obj
 0001:0002a890       _exception_enabled         000000018002b890 f   libucrt:libm_error.obj
 0001:0002ab20       _log_special_common        000000018002bb20 f   libucrt:log_special.obj
 0001:0002ace0       $$000000                   000000018002bce0     libucrt:fpsr.obj
 0001:0002baa0       $$000000                   000000018002caa0     LIBCMT:_chkstk_.obj
 0001:0002bcd0       $$000000                   000000018002ccd0     libvcruntime:memcmp.obj
 0001:0002bdb0       $$000000                   000000018002cdb0     LIBCMT:_guard_dispatch_.obj
 0001:0002bdd0       ?fin$0@?0??dllmain_crt_process_attach@@YAHQEAUHINSTANCE__@@QEAX@Z@4HA 000000018002cdd0 f   LIBCMT:dll_dllmain.obj
 0001:0002bde7       ?fin$0@?0??dllmain_crt_process_detach@@YAH_N@Z@4HA 000000018002cde7 f   LIBCMT:dll_dllmain.obj
 0001:0002be03       ?filt$0@?0??dllmain_dispatch@@YAHQEAUHINSTANCE__@@KQEAX@Z@4HA 000000018002ce03 f   LIBCMT:dll_dllmain.obj
 0001:0002be39       __scrt_is_nonwritable_in_current_image$filt$0 000000018002ce39 f   LIBCMT:utility.obj
 0001:0002be51       __DestructExceptionObject$filt$0 000000018002ce51 f   libvcruntime:ehhelpers.obj
 0001:0002be69       ?filt$0@?0???$_CallSETranslator@V__FrameHandler3@@@@YAHPEAUEHExceptionRecord@@PEA_KPEAU_CONTEXT@@PEAU_xDISPATCHER_CONTEXT@@PEBU_s_FuncInfo@@K1@Z@4HA 000000018002ce69 f   libvcruntime:risctrnsctrl.obj
 0001:0002befa       ?filt$0@?0??CxxCallCatchBlock@__FrameHandler3@@SAPEAXPEAU_EXCEPTION_RECORD@@@Z@4HA 000000018002cefa f   libvcruntime:frame.obj
 0001:0002bf1f       ?fin$1@?0??CxxCallCatchBlock@__FrameHandler3@@SAPEAXPEAU_EXCEPTION_RECORD@@@Z@4HA 000000018002cf1f f   libvcruntime:frame.obj
 0001:0002bf97       ?filt$0@?0??FrameUnwindToState@__FrameHandler3@@SAXPEA_KPEAU_xDISPATCHER_CONTEXT@@PEBU_s_FuncInfo@@H@Z@4HA 000000018002cf97 f   libvcruntime:frame.obj
 0001:0002bfad       ?fin$1@?0??FrameUnwindToState@__FrameHandler3@@SAXPEA_KPEAU_xDISPATCHER_CONTEXT@@PEBU_s_FuncInfo@@H@Z@4HA 000000018002cfad f   libvcruntime:frame.obj
 0001:0002bfd0       ?fin$0@?0???$?RV<lambda_842d9ff0dc9ef11c61343bbaebe7f885>@@AEAV<lambda_c5860995281e5c4ce005b3de8f5874ee>@@V<lambda_d90129c13df834fdcbf8d2b88dafcf2d>@@@?$__crt_seh_guarded_call@X@@QEAAX$$QEAV<lambda_842d9ff0dc9ef11c61343bbaebe7f885>@@AEAV<lambda_c5860995281e5c4ce005b3de8f5874ee>@@$$QEAV<lambda_d90129c13df834fdcbf8d2b88dafcf2d>@@@Z@4HA 000000018002cfd0 f   libucrt:fflush.obj
 0001:0002bfd0       ?fin$0@?0???$?RV<lambda_84ec643ea9557e2f7dc01bb0e9624395>@@AEAV<lambda_ca71763b3c0644891230e4f79ea54fa6>@@V<lambda_439a761618c59b0600e24586724d733b>@@@?$__crt_seh_guarded_call@H@@QEAAH$$QEAV<lambda_84ec643ea9557e2f7dc01bb0e9624395>@@AEAV<lambda_ca71763b3c0644891230e4f79ea54fa6>@@$$QEAV<lambda_439a761618c59b0600e24586724d733b>@@@Z@4HA 000000018002cfd0 f   libucrt:setvbuf.obj
 0001:0002bfd0       ?fin$0@?0???$?RV<lambda_0d412022a4b28cc8a401ea49574e8ae6>@@AEAV<lambda_a775ed57af18ba8e4d5dc780aa9068fe>@@V<lambda_975a71a6baa488a08f4e15f6b0339b9e>@@@?$__crt_seh_guarded_call@H@@QEAAH$$QEAV<lambda_0d412022a4b28cc8a401ea49574e8ae6>@@AEAV<lambda_a775ed57af18ba8e4d5dc780aa9068fe>@@$$QEAV<lambda_975a71a6baa488a08f4e15f6b0339b9e>@@@Z@4HA 000000018002cfd0 f   libucrt:output.obj
 0001:0002bfd0       ?fin$0@?0???$?RV<lambda_c376a267cfb53b6959b3b692ec76b120>@@AEAV<lambda_9a32fed5bf61b6b509b2d3f6003082a1>@@V<lambda_572fbb9fa0ab338edf41edfd4b5fcc8d>@@@?$__crt_seh_guarded_call@H@@QEAAH$$QEAV<lambda_c376a267cfb53b6959b3b692ec76b120>@@AEAV<lambda_9a32fed5bf61b6b509b2d3f6003082a1>@@$$QEAV<lambda_572fbb9fa0ab338edf41edfd4b5fcc8d>@@@Z@4HA 000000018002cfd0 f   libucrt:fflush.obj
 0001:0002bfd0       ?fin$0@?0???$?RV<lambda_a62c933ada0517137acf5807a1eeac1f>@@AEAV<lambda_a31071773b9a94e445cbd5d04ef99106>@@V<lambda_56065050dbf3ada7e59a83db45153de3>@@@?$__crt_seh_guarded_call@H@@QEAAH$$QEAV<lambda_a62c933ada0517137acf5807a1eeac1f>@@AEAV<lambda_a31071773b9a94e445cbd5d04ef99106>@@$$QEAV<lambda_56065050dbf3ada7e59a83db45153de3>@@@Z@4HA 000000018002cfd0 f   libucrt:output.obj
 0001:0002bfeb       _query_new_handler$fin$0   000000018002cfeb f   libucrt:new_handler.obj
 0001:0002c001       ?fin$0@?0???$?RV<lambda_efdfa57d1f175319df784efa44bb7b81>@@AEAV<lambda_5f0a4c1567f8adc6734073e5d1e1b35c>@@V<lambda_2e8a7d3640ea6ccb4c2413664c2db6fd>@@@?$__crt_seh_guarded_call@X@@QEAAX$$QEAV<lambda_efdfa57d1f175319df784efa44bb7b81>@@AEAV<lambda_5f0a4c1567f8adc6734073e5d1e1b35c>@@$$QEAV<lambda_2e8a7d3640ea6ccb4c2413664c2db6fd>@@@Z@4HA 000000018002d001 f   libucrt:mbctype.obj
 0001:0002c001       ?fin$0@?0???$?RV<lambda_0ae27a3a962d80f24befdcbee591983d>@@AEAV<lambda_8d0ee55de4b1038c4002e0adecdf1839>@@V<lambda_dc504788e8f1664fe9b84e20bfb512f2>@@@?$__crt_seh_guarded_call@X@@QEAAX$$QEAV<lambda_0ae27a3a962d80f24befdcbee591983d>@@AEAV<lambda_8d0ee55de4b1038c4002e0adecdf1839>@@$$QEAV<lambda_dc504788e8f1664fe9b84e20bfb512f2>@@@Z@4HA 000000018002d001 f   libucrt:per_thread_data.obj
 0001:0002c001       ?fin$0@?0???$?RV<lambda_2d41944a1d46af3157314b8a01080d33>@@AEAV<lambda_8f455de75cd7d7f24b4096f044d8b9e6>@@V<lambda_aa500f224e6afead328df44964fe2772>@@@?$__crt_seh_guarded_call@X@@QEAAX$$QEAV<lambda_2d41944a1d46af3157314b8a01080d33>@@AEAV<lambda_8f455de75cd7d7f24b4096f044d8b9e6>@@$$QEAV<lambda_aa500f224e6afead328df44964fe2772>@@@Z@4HA 000000018002d001 f   libucrt:per_thread_data.obj
 0001:0002c001       ?fin$0@?0???$?RV<lambda_aa87e3671a710a21b5dc78c0bdf72e11>@@AEAV<lambda_92619d2358a28f41a33ba319515a20b9>@@V<lambda_6992ecaafeb10aed2b74cb1fae11a551>@@@?$__crt_seh_guarded_call@X@@QEAAX$$QEAV<lambda_aa87e3671a710a21b5dc78c0bdf72e11>@@AEAV<lambda_92619d2358a28f41a33ba319515a20b9>@@$$QEAV<lambda_6992ecaafeb10aed2b74cb1fae11a551>@@@Z@4HA 000000018002d001 f   libucrt:per_thread_data.obj
 0001:0002c001       ?fin$0@?0???$?RV<lambda_450d765d439847d4c735a33c368b5fc0>@@AEAV<lambda_44731a7d0e6d81c3e6aa82d741081786>@@V<lambda_601a2a7da3b7a96e9554ac7215c4b07c>@@@?$__crt_seh_guarded_call@P6AXH@Z@@QEAAP6AXH@Z$$QEAV<lambda_450d765d439847d4c735a33c368b5fc0>@@AEAV<lambda_44731a7d0e6d81c3e6aa82d741081786>@@$$QEAV<lambda_601a2a7da3b7a96e9554ac7215c4b07c>@@@Z@4HA 000000018002d001 f   libucrt:signal.obj
 0001:0002c001       ?fin$0@?0???$?RV<lambda_f2e299630e499de9f9a165e60fcd3db5>@@AEAV<lambda_2ae9d31cdba2644fcbeaf08da7c24588>@@V<lambda_40d01ff24d0e7b3814fdbdcee8eab3c7>@@@?$__crt_seh_guarded_call@X@@QEAAX$$QEAV<lambda_f2e299630e499de9f9a165e60fcd3db5>@@AEAV<lambda_2ae9d31cdba2644fcbeaf08da7c24588>@@$$QEAV<lambda_40d01ff24d0e7b3814fdbdcee8eab3c7>@@@Z@4HA 000000018002d001 f   libucrt:per_thread_data.obj
 0001:0002c001       ?fin$0@?0???$?RV<lambda_7777bce6b2f8c936911f934f8298dc43>@@AEAV<lambda_f03950bc5685219e0bcd2087efbe011e>@@V<lambda_3883c3dff614d5e0c5f61bb1ac94921c>@@@?$__crt_seh_guarded_call@H@@QEAAH$$QEAV<lambda_7777bce6b2f8c936911f934f8298dc43>@@AEAV<lambda_f03950bc5685219e0bcd2087efbe011e>@@$$QEAV<lambda_3883c3dff614d5e0c5f61bb1ac94921c>@@@Z@4HA 000000018002d001 f   libucrt:onexit.obj
 0001:0002c001       ?fin$0@?0???$?RV<lambda_d80eeec6fff315bfe5c115232f3240e3>@@AEAV<lambda_6e4b09c48022b2350581041d5f6b0c4c>@@V<lambda_2358e3775559c9db80273638284d5e45>@@@?$__crt_seh_guarded_call@X@@QEAAX$$QEAV<lambda_d80eeec6fff315bfe5c115232f3240e3>@@AEAV<lambda_6e4b09c48022b2350581041d5f6b0c4c>@@$$QEAV<lambda_2358e3775559c9db80273638284d5e45>@@@Z@4HA 000000018002d001 f   libucrt:exit.obj
 0001:0002c01b       ?filt$0@?0???R<lambda_6e4b09c48022b2350581041d5f6b0c4c>@@QEBA@XZ@4HA 000000018002d01b f   libucrt:exit.obj
 0001:0002c036       ?fin$0@?0???$?RV<lambda_886d6c58226a84441f68b9f2b8217b83>@@AEAV<lambda_ab61a845afdef5b7c387490eaf3616ee>@@V<lambda_f7f22ab5edc0698d5f6905b0d3f44752>@@@?$__crt_seh_guarded_call@X@@QEAAX$$QEAV<lambda_886d6c58226a84441f68b9f2b8217b83>@@AEAV<lambda_ab61a845afdef5b7c387490eaf3616ee>@@$$QEAV<lambda_f7f22ab5edc0698d5f6905b0d3f44752>@@@Z@4HA 000000018002d036 f   libucrt:fflush.obj
 0001:0002c053       raise$fin$0                000000018002d053 f   libucrt:signal.obj
 0001:0002c074       _fcloseall$fin$0           000000018002d074 f   libucrt:closeall.obj
 0001:0002c08d       __acrt_initialize_lowio$fin$0 000000018002d08d f   libucrt:ioinit.obj
 0001:0002c08d       __acrt_lowio_ensure_fh_exists$fin$0 000000018002d08d f   libucrt:osfinfo.obj
 0001:0002c0a6       ?fin$0@?0???$?RV<lambda_410d79af7f07d98d83a3f525b3859a53>@@AEAV<lambda_3e16ef9562a7dcce91392c22ab16ea36>@@V<lambda_38119f0e861e05405d8a144b9b982f0a>@@@?$__crt_seh_guarded_call@X@@QEAAX$$QEAV<lambda_410d79af7f07d98d83a3f525b3859a53>@@AEAV<lambda_3e16ef9562a7dcce91392c22ab16ea36>@@$$QEAV<lambda_38119f0e861e05405d8a144b9b982f0a>@@@Z@4HA 000000018002d0a6 f   libucrt:wsetlocale.obj
 0001:0002c0c0       ?fin$0@?0??update_thread_multibyte_data_internal@@YAPEAU__crt_multibyte_data@@QEAU__acrt_ptd@@QEAPEAU1@@Z@4HA 000000018002d0c0 f   libucrt:mbctype.obj
 0001:0002c0d9       ?fin$0@?0???$?RV<lambda_a37b2b86f63e897a80ea819b0eb08c01>@@AEAV<lambda_38ce7e780aa69e748d6df282ebc68efe>@@V<lambda_99fb1378e971ab6e7edea83e3a7a83a2>@@@?$__crt_seh_guarded_call@H@@QEAAH$$QEAV<lambda_a37b2b86f63e897a80ea819b0eb08c01>@@AEAV<lambda_38ce7e780aa69e748d6df282ebc68efe>@@$$QEAV<lambda_99fb1378e971ab6e7edea83e3a7a83a2>@@@Z@4HA 000000018002d0d9 f   libucrt:commit.obj
 0001:0002c0d9       ?fin$0@?0???$?RV<lambda_751a882b2c74d4b022dec766aa51a29a>@@AEAV<lambda_628dfdc04ba53c8bfc02c9951375f3f5>@@V<lambda_f6c7be5f7998530c34de24c7437d6b54>@@@?$__crt_seh_guarded_call@H@@QEAAH$$QEAV<lambda_751a882b2c74d4b022dec766aa51a29a>@@AEAV<lambda_628dfdc04ba53c8bfc02c9951375f3f5>@@$$QEAV<lambda_f6c7be5f7998530c34de24c7437d6b54>@@@Z@4HA 000000018002d0d9 f   libucrt:close.obj
 0001:0002c0f3       ?fin$0@?0???$common_lseek@_J@@YA_JH_JH@Z@4HA 000000018002d0f3 f   libucrt:lseek.obj
 0001:0002c0f3       _write$fin$0               000000018002d0f3 f   libucrt:write.obj
 0001:0002c10a       fclose$fin$0               000000018002d10a f   libucrt:fclose.obj
 0001:0002c122       __acrt_update_thread_locale_data$fin$0 000000018002d122 f   libucrt:locale_refcounting.obj
 0001:0002c13b       ?dtor$0@?0??_wcstombs_l_helper@@YA_KPEADPEB_W_KPEAU__crt_locale_pointers@@@Z@4HA 000000018002d13b f   libucrt:wcstombs.obj
 0001:0002c147       _ctrlfp$filt$0             000000018002d147 f   libucrt:fpctrl.obj
 0001:0002c180       _IsNonwritableInCurrentImage$filt$0 000000018002d180 f   LIBCMT:pesect.obj
 0002:00000270       ?noncefn_callback$initializer$@@3P6AXXZEA 000000018002e270     ecdsa.obj
 0002:00000308       GS_ExceptionPointers       000000018002e308     LIBCMT:gs_report.obj
 0002:000003b0       ?ExceptionTemplate@?1??_CxxThrowException@@9@4UEHExceptionRecord@@B 000000018002e3b0     libvcruntime:throw.obj
 0002:00000400       ?tokenTable@@3QBQEBDB      000000018002e400     libvcruntime:undname.obj
 0002:00000480       ?nameTable@@3QBQEBDB       000000018002e480     libvcruntime:undname.obj
 0002:00000710       ?rttiTable@@3QBQEBDB       000000018002e710     libvcruntime:undname.obj
 0002:00000dc8       ?module_names@?A0xcc2f1bd3@@3QBQEB_WB 000000018002edc8     libvcruntime:winapi_downlevel.obj
 0002:00000e98       ?candidate_modules@?1??try_get_FlsAlloc@@YAP6AKP6AXPEAX@Z@ZXZ@4QBW4module_id@?A0xcc2f1bd3@@B 000000018002ee98     libvcruntime:winapi_downlevel.obj
 0002:00000eb0       ?candidate_modules@?1??try_get_FlsFree@@YAP6AHK@ZXZ@4QBW4module_id@?A0xcc2f1bd3@@B 000000018002eeb0     libvcruntime:winapi_downlevel.obj
 0002:00000ec0       ?candidate_modules@?1??try_get_FlsGetValue@@YAP6APEAXK@ZXZ@4QBW4module_id@?A0xcc2f1bd3@@B 000000018002eec0     libvcruntime:winapi_downlevel.obj
 0002:00000ed8       ?candidate_modules@?1??try_get_FlsSetValue@@YAP6AHKPEAX@ZXZ@4QBW4module_id@?A0xcc2f1bd3@@B 000000018002eed8     libvcruntime:winapi_downlevel.obj
 0002:00000ef0       ?candidate_modules@?1??try_get_InitializeCriticalSectionEx@@YAP6AHPEAU_RTL_CRITICAL_SECTION@@KK@ZXZ@4QBW4module_id@?A0xcc2f1bd3@@B 000000018002eef0     libvcruntime:winapi_downlevel.obj
 0002:00000f20       ?ExceptionTemplate@?1??UnwindNestedFrames@__FrameHandler3@@SAXPEA_KPEAUEHExceptionRecord@@PEAU_CONTEXT@@0PEAXPEBU_s_FuncInfo@@HHPEBU_s_HandlerType@@PEAU_xDISPATCHER_CONTEXT@@E@Z@4U_EXCEPTION_RECORD@@B 000000018002ef20     libvcruntime:risctrnsctrl.obj
 0002:00001440       __acrt_initializers        000000018002f440     libucrt:initialization.obj
 0002:00001540       ?errtable@@3QBUerrentry@?A0x31fdb9ec@@B 000000018002f540     libucrt:errno.obj
 0002:000016a0       ?module_names@?A0x391cf84c@@3QBQEB_WB 000000018002f6a0     libucrt:winapi_thunks.obj
 0002:00001c48       ?candidate_modules@?1??try_get_FlsAlloc@@YAP6AKP6AXPEAX@Z@ZXZ@4QBW4module_id@?A0x391cf84c@@B 000000018002fc48     libucrt:winapi_thunks.obj
 0002:00001c60       ?candidate_modules@?1??try_get_FlsFree@@YAP6AHK@ZXZ@4QBW4module_id@?A0x391cf84c@@B 000000018002fc60     libucrt:winapi_thunks.obj
 0002:00001c70       ?candidate_modules@?1??try_get_FlsGetValue@@YAP6APEAXK@ZXZ@4QBW4module_id@?A0x391cf84c@@B 000000018002fc70     libucrt:winapi_thunks.obj
 0002:00001c88       ?candidate_modules@?1??try_get_FlsSetValue@@YAP6AHKPEAX@ZXZ@4QBW4module_id@?A0x391cf84c@@B 000000018002fc88     libucrt:winapi_thunks.obj
 0002:00001ca0       ?candidate_modules@?1??try_get_GetActiveWindow@@YAP6APEAUHWND__@@XZXZ@4QBW4module_id@?A0x391cf84c@@B 000000018002fca0     libucrt:winapi_thunks.obj
 0002:00001cb8       ?candidate_modules@?1??try_get_GetLastActivePopup@@YAP6APEAUHWND__@@PEAU2@@ZXZ@4QBW4module_id@?A0x391cf84c@@B 000000018002fcb8     libucrt:winapi_thunks.obj
 0002:00001cd8       ?candidate_modules@?1??try_get_GetProcessWindowStation@@YAP6APEAUHWINSTA__@@XZXZ@4QBW4module_id@?A0x391cf84c@@B 000000018002fcd8     libucrt:winapi_thunks.obj
 0002:00001cf8       ?candidate_modules@?1??try_get_GetUserObjectInformationW@@YAP6AHPEAXH0KPEAK@ZXZ@4QBW4module_id@?A0x391cf84c@@B 000000018002fcf8     libucrt:winapi_thunks.obj
 0002:00001d20       ?candidate_modules@?1??try_get_InitializeCriticalSectionEx@@YAP6AHPEAU_RTL_CRITICAL_SECTION@@KK@ZXZ@4QBW4module_id@?A0x391cf84c@@B 000000018002fd20     libucrt:winapi_thunks.obj
 0002:00001d48       ?candidate_modules@?1??try_get_LCMapStringEx@@YAP6AHPEB_WK0HPEA_WHPEAU_nlsversioninfo@@PEAX_J@ZXZ@4QBW4module_id@?A0x391cf84c@@B 000000018002fd48     libucrt:winapi_thunks.obj
 0002:00001d60       ?candidate_modules@?1??try_get_LocaleNameToLCID@@YAP6AKPEB_WK@ZXZ@4QBW4module_id@?A0x391cf84c@@B 000000018002fd60     libucrt:winapi_thunks.obj
 0002:00001d80       ?candidate_modules@?1??try_get_MessageBoxA@@YAP6AHPEAUHWND__@@PEBD1I@ZXZ@4QBW4module_id@?A0x391cf84c@@B 000000018002fd80     libucrt:winapi_thunks.obj
 0002:00001d98       ?candidate_modules@?1??try_get_MessageBoxW@@YAP6AHPEAUHWND__@@PEB_W1I@ZXZ@4QBW4module_id@?A0x391cf84c@@B 000000018002fd98     libucrt:winapi_thunks.obj
 0002:00001dac       ?candidate_modules@?1??try_get_AppPolicyGetProcessTerminationMethod@@YAP6AJPEAXPEAW4AppPolicyProcessTerminationMethod@@@ZXZ@4QBW4module_id@?A0x391cf84c@@B 000000018002fdac     libucrt:winapi_thunks.obj
 0002:00001dd8       ?candidate_modules@?1??try_get_AppPolicyGetShowDeveloperDiagnostic@@YAP6AJPEAXPEAW4AppPolicyShowDeveloperDiagnostic@@@ZXZ@4QBW4module_id@?A0x391cf84c@@B 000000018002fdd8     libucrt:winapi_thunks.obj
 0002:00001e04       ?candidate_modules@?1??try_get_AppPolicyGetWindowingModel@@YAP6AJPEAXPEAW4AppPolicyWindowingModel@@@ZXZ@4QBW4module_id@?A0x391cf84c@@B 000000018002fe04     libucrt:winapi_thunks.obj
 0002:00002500       ?_mb_locale_names@@3QBQEB_WB 0000000180030500     libucrt:mbctype.obj
 0002:00002d70       ?LcidToLocaleNameTable@?A0x881e4c05@@3QBULcidToLocaleName@1@B 0000000180030d70     libucrt:lcidtoname_downlevel.obj
 0002:000047d0       ?LocaleNameToIndexTable@?A0x881e4c05@@3QBULocaleNameIndex@1@B 00000001800327d0     libucrt:lcidtoname_downlevel.obj
 0002:00006a70       __real_ninf                0000000180034a70     libucrt:log10.obj
 0002:00006a80       __real_inf                 0000000180034a80     libucrt:log10.obj
 0002:00006a90       __real_neg_qnan            0000000180034a90     libucrt:log10.obj
 0002:00006aa0       __real_qnanbit             0000000180034aa0     libucrt:log10.obj
 0002:00006ab0       __int_1023                 0000000180034ab0     libucrt:log10.obj
 0002:00006ac0       __mask_001                 0000000180034ac0     libucrt:log10.obj
 0002:00006ad0       __mask_mant                0000000180034ad0     libucrt:log10.obj
 0002:00006ae0       __mask_mant_top8           0000000180034ae0     libucrt:log10.obj
 0002:00006af0       __mask_mant9               0000000180034af0     libucrt:log10.obj
 0002:00006b00       __real_log10_e             0000000180034b00     libucrt:log10.obj
 0002:00006b10       __real_log10_e_lead        0000000180034b10     libucrt:log10.obj
 0002:00006b20       __real_log10_e_tail        0000000180034b20     libucrt:log10.obj
 0002:00006b30       __real_log10_2_lead        0000000180034b30     libucrt:log10.obj
 0002:00006b40       __real_log10_2_tail        0000000180034b40     libucrt:log10.obj
 0002:00006b50       __real_two                 0000000180034b50     libucrt:log10.obj
 0002:00006b60       __real_one                 0000000180034b60     libucrt:log10.obj
 0002:00006b70       __real_half                0000000180034b70     libucrt:log10.obj
 0002:00006b80       __mask_100                 0000000180034b80     libucrt:log10.obj
 0002:00006b90       __real_1_over_512          0000000180034b90     libucrt:log10.obj
 0002:00006ba0       __real_1_over_2            0000000180034ba0     libucrt:log10.obj
 0002:00006bb0       __real_1_over_3            0000000180034bb0     libucrt:log10.obj
 0002:00006bc0       __real_1_over_4            0000000180034bc0     libucrt:log10.obj
 0002:00006bd0       __real_1_over_5            0000000180034bd0     libucrt:log10.obj
 0002:00006be0       __real_1_over_6            0000000180034be0     libucrt:log10.obj
 0002:00006bf0       __real_neg_1023            0000000180034bf0     libucrt:log10.obj
 0002:00006c00       __mask_2045                0000000180034c00     libucrt:log10.obj
 0002:00006c10       __real_threshold           0000000180034c10     libucrt:log10.obj
 0002:00006c20       __real_near_one_lt         0000000180034c20     libucrt:log10.obj
 0002:00006c30       __real_near_one_gt         0000000180034c30     libucrt:log10.obj
 0002:00006c40       __real_min_norm            0000000180034c40     libucrt:log10.obj
 0002:00006c50       __real_notsign             0000000180034c50     libucrt:log10.obj
 0002:00006c60       __real_ca1                 0000000180034c60     libucrt:log10.obj
 0002:00006c70       __real_ca2                 0000000180034c70     libucrt:log10.obj
 0002:00006c80       __real_ca3                 0000000180034c80     libucrt:log10.obj
 0002:00006c90       __real_ca4                 0000000180034c90     libucrt:log10.obj
 0002:00006ca0       __mask_lower               0000000180034ca0     libucrt:log10.obj
 0002:00006cb0       __flag_x_zero              0000000180034cb0     libucrt:log10.obj
 0002:00006cb4       __flag_x_neg               0000000180034cb4     libucrt:log10.obj
 0002:00006cb8       __flag_x_nan               0000000180034cb8     libucrt:log10.obj
 0002:00006cc0       $cppxdata$?_wcstombs_l_helper@@YA_KPEADPEB_W_KPEAU__crt_locale_pointers@@@Z 0000000180034cc0     libucrt:wcstombs.obj
 0002:00008540       __real@433fffffffffffff    0000000180036540     libucrt:fpsr.obj
 0002:00008548       __real@c33fffffffffffff    0000000180036548     libucrt:fpsr.obj
 0002:00008f90       ?zero@?1??secp256k1_rfc6979_hmac_sha256_initialize@@9@9 0000000180036f90     secp256k1.obj
 0002:00008f91       ?zero@?1??secp256k1_rfc6979_hmac_sha256_generate@@9@9 0000000180036f91     secp256k1.obj
 0002:00008f92       ?one@?1??secp256k1_rfc6979_hmac_sha256_initialize@@9@9 0000000180036f92     secp256k1.obj
 0002:00008f98       default_error_callback     0000000180036f98     secp256k1.obj
 0002:00008fb8       ?fe_1@?1??secp256k1_gej_add_ge@@9@9 0000000180036fb8     secp256k1.obj
 0002:00008fe0       secp256k1_ge_const_g       0000000180036fe0     secp256k1.obj
 0002:00009040       secp256k1_ecdsa_const_p_minus_order 0000000180037040     secp256k1.obj
 0002:00009068       default_illegal_callback   0000000180037068     secp256k1.obj
 0002:00009078       secp256k1_ecdsa_const_order_as_fe 0000000180037078     secp256k1.obj
 0002:000090a0       ?pad@?1??secp256k1_sha256_finalize@@9@9 00000001800370a0     secp256k1.obj
 0002:000090e0       secp256k1_context_no_precomp_ 00000001800370e0     secp256k1.obj
 0002:000091b0       ?nums_b32@?3??secp256k1_ecmult_gen_context_build@@9@9 00000001800371b0     secp256k1.obj
 0002:000091d8       ?begin@?4??ec_privkey_export_der@@9@9 00000001800371d8     lax_der_privatekey_parsing.obj
 0002:000091e8       ?begin@?3??ec_privkey_export_der@@9@9 00000001800371e8     lax_der_privatekey_parsing.obj
 0002:000091f0       ?middle@?4??ec_privkey_export_der@@9@9 00000001800371f0     lax_der_privatekey_parsing.obj
 0002:000092a0       ?middle@?3??ec_privkey_export_der@@9@9 00000001800372a0     lax_der_privatekey_parsing.obj
 0002:00009d40       $unwind$?FunctionCallbackWrapper@imp@Nan@@YAXAEBV?$FunctionCallbackInfo@VValue@v8@@@v8@@@Z 0000000180037d40     addon.obj
 0002:00009d50       $unwind$?Export@Nan@@YAXV?$Local@VObject@v8@@@v8@@PEBDP6AXAEBV?$FunctionCallbackInfo@VValue@v8@@@1@@Z@Z 0000000180037d50     addon.obj
 0002:00009d6c       $unwind$?Init@@YAXV?$Local@VObject@v8@@@v8@@@Z 0000000180037d6c     addon.obj
 0002:00009d84       $unwind$?ThrowError@Nan@@YAXPEBD@Z 0000000180037d84     privatekey.obj
 0002:00009d84       $unwind$?ThrowTypeError@Nan@@YAXPEBD@Z 0000000180037d84     privatekey.obj
 0002:00009d84       $unwind$?ThrowRangeError@Nan@@YAXPEBD@Z 0000000180037d84     privatekey.obj
 0002:00009d8c       $unwind$secp256k1_scalar_set_b32 0000000180037d8c     secp256k1.obj
 0002:00009d8c       $unwind$?secp256k1_scalar_set_b32@@YAXPEAUsecp256k1_scalar@@PEBEPEAH@Z 0000000180037d8c     privatekey.obj
 0002:00009da4       $unwind$?secp256k1_scalar_reduce_512@@YAXPEAUsecp256k1_scalar@@PEBI@Z 0000000180037da4     privatekey.obj
 0002:00009da4       $unwind$secp256k1_scalar_reduce_512 0000000180037da4     secp256k1.obj
 0002:00009da4       $unwind$secp256k1_fe_sqr_inner 0000000180037da4     secp256k1.obj
 0002:00009dbc       $unwind$?secp256k1_scalar_mul_512@@YAXPEAIPEBUsecp256k1_scalar@@1@Z 0000000180037dbc     privatekey.obj
 0002:00009dbc       $unwind$secp256k1_scalar_mul_512 0000000180037dbc     secp256k1.obj
 0002:00009dd4       $unwind$secp256k1_scalar_sqr_512 0000000180037dd4     secp256k1.obj
 0002:00009dd4       $unwind$?secp256k1_scalar_sqr_512@@YAXPEAIPEBUsecp256k1_scalar@@@Z 0000000180037dd4     privatekey.obj
 0002:00009dec       $unwind$?secp256k1_scalar_inverse@@YAXPEAUsecp256k1_scalar@@PEBU1@@Z 0000000180037dec     privatekey.obj
 0002:00009dec       $unwind$secp256k1_scalar_inverse 0000000180037dec     secp256k1.obj
 0002:00009e10       $unwind$?privateKeyVerify@@YAXAEBV?$FunctionCallbackInfo@VValue@v8@@@Nan@@@Z 0000000180037e10     privatekey.obj
 0002:00009e20       $unwind$?privateKeyExport@@YAXAEBV?$FunctionCallbackInfo@VValue@v8@@@Nan@@@Z 0000000180037e20     privatekey.obj
 0002:00009e3c       $unwind$?privateKeyImport@@YAXAEBV?$FunctionCallbackInfo@VValue@v8@@@Nan@@@Z 0000000180037e3c     privatekey.obj
 0002:00009e54       $unwind$?privateKeyNegate@@YAXAEBV?$FunctionCallbackInfo@VValue@v8@@@Nan@@@Z 0000000180037e54     privatekey.obj
 0002:00009e6c       $unwind$?privateKeyModInverse@@YAXAEBV?$FunctionCallbackInfo@VValue@v8@@@Nan@@@Z 0000000180037e6c     privatekey.obj
 0002:00009e88       $unwind$?privateKeyTweakAdd@@YAXAEBV?$FunctionCallbackInfo@VValue@v8@@@Nan@@@Z 0000000180037e88     privatekey.obj
 0002:00009ea4       $unwind$?privateKeyTweakMul@@YAXAEBV?$FunctionCallbackInfo@VValue@v8@@@Nan@@@Z 0000000180037ea4     privatekey.obj
 0002:00009ea4       $unwind$?signatureNormalize@@YAXAEBV?$FunctionCallbackInfo@VValue@v8@@@Nan@@@Z 0000000180037ea4     signature.obj
 0002:00009ec0       $unwind$?publicKeyCreate@@YAXAEBV?$FunctionCallbackInfo@VValue@v8@@@Nan@@@Z 0000000180037ec0     publickey.obj
 0002:00009ee0       $unwind$?publicKeyConvert@@YAXAEBV?$FunctionCallbackInfo@VValue@v8@@@Nan@@@Z 0000000180037ee0     publickey.obj
 0002:00009f04       $unwind$?publicKeyVerify@@YAXAEBV?$FunctionCallbackInfo@VValue@v8@@@Nan@@@Z 0000000180037f04     publickey.obj
 0002:00009f1c       $chain$0$?publicKeyVerify@@YAXAEBV?$FunctionCallbackInfo@VValue@v8@@@Nan@@@Z 0000000180037f1c     publickey.obj
 0002:00009f30       $chain$1$?publicKeyVerify@@YAXAEBV?$FunctionCallbackInfo@VValue@v8@@@Nan@@@Z 0000000180037f30     publickey.obj
 0002:00009f40       $unwind$?publicKeyTweakMul@@YAXAEBV?$FunctionCallbackInfo@VValue@v8@@@Nan@@@Z 0000000180037f40     publickey.obj
 0002:00009f40       $unwind$?publicKeyTweakAdd@@YAXAEBV?$FunctionCallbackInfo@VValue@v8@@@Nan@@@Z 0000000180037f40     publickey.obj
 0002:00009f64       $unwind$?publicKeyCombine@@YAXAEBV?$FunctionCallbackInfo@VValue@v8@@@Nan@@@Z 0000000180037f64     publickey.obj
 0002:00009f78       $chain$1$?publicKeyCombine@@YAXAEBV?$FunctionCallbackInfo@VValue@v8@@@Nan@@@Z 0000000180037f78     publickey.obj
 0002:00009f90       $chain$5$?publicKeyCombine@@YAXAEBV?$FunctionCallbackInfo@VValue@v8@@@Nan@@@Z 0000000180037f90     publickey.obj
 0002:00009fb0       $chain$6$?publicKeyCombine@@YAXAEBV?$FunctionCallbackInfo@VValue@v8@@@Nan@@@Z 0000000180037fb0     publickey.obj
 0002:00009fc0       $chain$7$?publicKeyCombine@@YAXAEBV?$FunctionCallbackInfo@VValue@v8@@@Nan@@@Z 0000000180037fc0     publickey.obj
 0002:00009fd0       $unwind$?signatureExport@@YAXAEBV?$FunctionCallbackInfo@VValue@v8@@@Nan@@@Z 0000000180037fd0     signature.obj
 0002:00009fe8       $unwind$?signatureImport@@YAXAEBV?$FunctionCallbackInfo@VValue@v8@@@Nan@@@Z 0000000180037fe8     signature.obj
 0002:0000a008       $unwind$?signatureImportLax@@YAXAEBV?$FunctionCallbackInfo@VValue@v8@@@Nan@@@Z 0000000180038008     signature.obj
 0002:0000a020       $chain$0$?signatureImportLax@@YAXAEBV?$FunctionCallbackInfo@VValue@v8@@@Nan@@@Z 0000000180038020     signature.obj
 0002:0000a034       $chain$1$?signatureImportLax@@YAXAEBV?$FunctionCallbackInfo@VValue@v8@@@Nan@@@Z 0000000180038034     signature.obj
 0002:0000a044       $unwind$?nonce_function_custom@@YAHPEAEPEBE11PEAXI@Z 0000000180038044     ecdsa.obj
 0002:0000a064       $unwind$?sign@@YAXAEBV?$FunctionCallbackInfo@VValue@v8@@@Nan@@@Z 0000000180038064     ecdsa.obj
 0002:0000a08c       $chain$4$?sign@@YAXAEBV?$FunctionCallbackInfo@VValue@v8@@@Nan@@@Z 000000018003808c     ecdsa.obj
 0002:0000a0a0       $chain$5$?sign@@YAXAEBV?$FunctionCallbackInfo@VValue@v8@@@Nan@@@Z 00000001800380a0     ecdsa.obj
 0002:0000a0b0       $unwind$?verify@@YAXAEBV?$FunctionCallbackInfo@VValue@v8@@@Nan@@@Z 00000001800380b0     ecdsa.obj
 0002:0000a0cc       $unwind$?recover@@YAXAEBV?$FunctionCallbackInfo@VValue@v8@@@Nan@@@Z 00000001800380cc     ecdsa.obj
 0002:0000a0f8       $unwind$?ecdh@@YAXAEBV?$FunctionCallbackInfo@VValue@v8@@@Nan@@@Z 00000001800380f8     ecdh.obj
 0002:0000a118       $unwind$?ecdhUnsafe@@YAXAEBV?$FunctionCallbackInfo@VValue@v8@@@Nan@@@Z 0000000180038118     ecdh.obj
 0002:0000a138       $unwind$fwprintf           0000000180038138     libucrt:assert.obj
 0002:0000a138       $unwind$fprintf            0000000180038138     secp256k1.obj
 0002:0000a144       $unwind$secp256k1_fe_normalize 0000000180038144     secp256k1.obj
 0002:0000a160       $unwind$secp256k1_fe_normalize_weak 0000000180038160     secp256k1.obj
 0002:0000a174       $unwind$secp256k1_fe_normalize_var 0000000180038174     secp256k1.obj
 0002:0000a18c       $unwind$secp256k1_fe_set_b32 000000018003818c     secp256k1.obj
 0002:0000a18c       $unwind$secp256k1_fe_normalizes_to_zero 000000018003818c     secp256k1.obj
 0002:0000a1a4       $unwind$secp256k1_fe_normalizes_to_zero_var 00000001800381a4     secp256k1.obj
 0002:0000a1c0       $unwind$secp256k1_fe_mul_inner 00000001800381c0     secp256k1.obj
 0002:0000a1d8       $unwind$secp256k1_der_read_len 00000001800381d8     secp256k1.obj
 0002:0000a1d8       $unwind$??$type_case_integer_parse_into_buffer@_K@?$output_processor@_WV?$string_output_adapter@_W@__crt_stdio_output@@V?$standard_base@_WV?$string_output_adapter@_W@__crt_stdio_output@@@2@@__crt_stdio_output@@AEAAX_KI_N@Z 00000001800381d8     libucrt:output.obj
 0002:0000a1d8       $unwind$??$type_case_integer_parse_into_buffer@_K@?$output_processor@_WV?$stream_output_adapter@_W@__crt_stdio_output@@V?$standard_base@_WV?$stream_output_adapter@_W@__crt_stdio_output@@@2@@__crt_stdio_output@@AEAAX_KI_N@Z 00000001800381d8     libucrt:output.obj
 0002:0000a1d8       $unwind$secp256k1_scalar_is_high 00000001800381d8     secp256k1.obj
 0002:0000a1d8       $unwind$??$type_case_integer_parse_into_buffer@I@?$output_processor@_WV?$string_output_adapter@_W@__crt_stdio_output@@V?$standard_base@_WV?$string_output_adapter@_W@__crt_stdio_output@@@2@@__crt_stdio_output@@AEAAXII_N@Z 00000001800381d8     libucrt:output.obj
 0002:0000a1d8       $unwind$secp256k1_fe_cmov  00000001800381d8     secp256k1.obj
 0002:0000a1d8       $unwind$??$type_case_integer_parse_into_buffer@I@?$output_processor@_WV?$stream_output_adapter@_W@__crt_stdio_output@@V?$standard_base@_WV?$stream_output_adapter@_W@__crt_stdio_output@@@2@@__crt_stdio_output@@AEAAXII_N@Z 00000001800381d8     libucrt:output.obj
 0002:0000a1d8       $unwind$??$type_case_integer_parse_into_buffer@I@?$output_processor@DV?$stream_output_adapter@D@__crt_stdio_output@@V?$standard_base@DV?$stream_output_adapter@D@__crt_stdio_output@@@2@@__crt_stdio_output@@AEAAXII_N@Z 00000001800381d8     libucrt:output.obj
 0002:0000a1d8       $unwind$??$type_case_integer_parse_into_buffer@_K@?$output_processor@DV?$stream_output_adapter@D@__crt_stdio_output@@V?$standard_base@DV?$stream_output_adapter@D@__crt_stdio_output@@@2@@__crt_stdio_output@@AEAAX_KI_N@Z 00000001800381d8     libucrt:output.obj
 0002:0000a1d8       $unwind$secp256k1_scalar_negate 00000001800381d8     secp256k1.obj
 0002:0000a1e0       $unwind$secp256k1_fe_sqrt  00000001800381e0     secp256k1.obj
 0002:0000a1fc       $unwind$secp256k1_fe_inv   00000001800381fc     secp256k1.obj
 0002:0000a21c       $unwind$secp256k1_scalar_add 000000018003821c     secp256k1.obj
 0002:0000a238       $unwind$secp256k1_scalar_cond_negate 0000000180038238     secp256k1.obj
 0002:0000a254       $unwind$secp256k1_ge_set_gej 0000000180038254     secp256k1.obj
 0002:0000a268       $unwind$secp256k1_ge_globalz_set_table_gej 0000000180038268     secp256k1.obj
 0002:0000a284       $unwind$__acrt_execute_initializers 0000000180038284     libucrt:shared_initialization.obj
 0002:0000a284       $unwind$?type_case_n@?$output_processor@_WV?$stream_output_adapter@_W@__crt_stdio_output@@V?$standard_base@_WV?$stream_output_adapter@_W@__crt_stdio_output@@@2@@__crt_stdio_output@@AEAA_NXZ 0000000180038284     libucrt:output.obj
 0002:0000a284       $unwind$?type_case_n@?$output_processor@DV?$stream_output_adapter@D@__crt_stdio_output@@V?$standard_base@DV?$stream_output_adapter@D@__crt_stdio_output@@@2@@__crt_stdio_output@@AEAA_NXZ 0000000180038284     libucrt:output.obj
 0002:0000a284       $unwind$secp256k1_ge_set_xo_var 0000000180038284     secp256k1.obj
 0002:0000a284       $unwind$?type_case_Z@?$output_processor@_WV?$stream_output_adapter@_W@__crt_stdio_output@@V?$standard_base@_WV?$stream_output_adapter@_W@__crt_stdio_output@@@2@@__crt_stdio_output@@AEAA_NXZ 0000000180038284     libucrt:output.obj
 0002:0000a284       $unwind$??$common_lseek_nolock@_J@@YA_JH_JH@Z 0000000180038284     libucrt:lseek.obj
 0002:0000a284       $unwind$?type_case_n@?$output_processor@_WV?$string_output_adapter@_W@__crt_stdio_output@@V?$standard_base@_WV?$string_output_adapter@_W@__crt_stdio_output@@@2@@__crt_stdio_output@@AEAA_NXZ 0000000180038284     libucrt:output.obj
 0002:0000a284       $unwind$?FrameUnwindToEmptyState@__FrameHandler3@@SAXPEA_KPEAU_xDISPATCHER_CONTEXT@@PEBU_s_FuncInfo@@@Z 0000000180038284     libvcruntime:risctrnsctrl.obj
 0002:0000a284       $unwind$?type_case_Z@?$output_processor@_WV?$string_output_adapter@_W@__crt_stdio_output@@V?$standard_base@_WV?$string_output_adapter@_W@__crt_stdio_output@@@2@@__crt_stdio_output@@AEAA_NXZ 0000000180038284     libucrt:output.obj
 0002:0000a284       $unwind$?free_crt_array_internal@@YAXQEAPEBX_K@Z 0000000180038284     libucrt:inittime.obj
 0002:0000a284       $unwind$__acrt_stdio_flush_and_write_wide_nolock 0000000180038284     libucrt:_flsbuf.obj
 0002:0000a284       $unwind$__acrt_InitializeCriticalSectionEx 0000000180038284     libucrt:winapi_thunks.obj
 0002:0000a284       $unwind$memcpy_s           0000000180038284     libucrt:cfout.obj
 0002:0000a284       $unwind$?type_case_s@?$output_processor@_WV?$string_output_adapter@_W@__crt_stdio_output@@V?$standard_base@_WV?$string_output_adapter@_W@__crt_stdio_output@@@2@@__crt_stdio_output@@AEAA_NXZ 0000000180038284     libucrt:output.obj
 0002:0000a284       $unwind$__acrt_stdio_flush_and_write_narrow_nolock 0000000180038284     libucrt:_flsbuf.obj
 0002:0000a284       $unwind$__vcrt_getptd_noexit 0000000180038284     libvcruntime:per_thread_data.obj
 0002:0000a284       $unwind$??0_LocaleUpdate@@QEAA@QEAU__crt_locale_pointers@@@Z 0000000180038284     libucrt:output.obj
 0002:0000a284       $unwind$_exception_enabled 0000000180038284     libucrt:libm_error.obj
 0002:0000a284       $unwind$_DllMainCRTStartup 0000000180038284     LIBCMT:dll_dllmain.obj
 0002:0000a284       $unwind$?CatchTryBlock@__FrameHandler3@@SAPEBU_s_TryBlockMapEntry@@PEBU_s_FuncInfo@@H@Z 0000000180038284     libvcruntime:risctrnsctrl.obj
 0002:0000a284       $unwind$?type_case_s@?$output_processor@_WV?$stream_output_adapter@_W@__crt_stdio_output@@V?$standard_base@_WV?$stream_output_adapter@_W@__crt_stdio_output@@@2@@__crt_stdio_output@@AEAA_NXZ 0000000180038284     libucrt:output.obj
 0002:0000a284       $unwind$__vcrt_InitializeCriticalSectionEx 0000000180038284     libvcruntime:winapi_downlevel.obj
 0002:0000a284       $unwind$__acrt_stdio_flush_nolock 0000000180038284     libucrt:fflush.obj
 0002:0000a294       $unwind$secp256k1_gej_eq_x_var 0000000180038294     secp256k1.obj
 0002:0000a2a8       $unwind$wcscpy_s           00000001800382a8     libucrt:wcscpy_s.obj
 0002:0000a2a8       $unwind$_fflush_nolock     00000001800382a8     libucrt:fflush.obj
 0002:0000a2a8       $unwind$__vcrt_freeptd     00000001800382a8     libvcruntime:per_thread_data.obj
 0002:0000a2a8       $unwind$__vcrt_initialize_locks 00000001800382a8     libvcruntime:locks.obj
 0002:0000a2a8       $unwind$?load_exe_hook@@YAP6A_JXZIPEAUDelayLoadInfo@@@Z 00000001800382a8     win_delay_load_hook.obj
 0002:0000a2a8       $unwind$__acrt_AppPolicyGetProcessTerminationMethodInternal 00000001800382a8     libucrt:winapi_thunks.obj
 0002:0000a2a8       $unwind$??0exception@std@@QEAA@AEBV01@@Z 00000001800382a8     LIBCMT:throw_bad_alloc.obj
 0002:0000a2a8       $unwind$__vcrt_uninitialize_locks 00000001800382a8     libvcruntime:locks.obj
 0002:0000a2a8       $unwind$__vcrt_FlsAlloc    00000001800382a8     libvcruntime:winapi_downlevel.obj
 0002:0000a2a8       $unwind$__vcrt_FlsFree     00000001800382a8     libvcruntime:winapi_downlevel.obj
 0002:0000a2a8       $unwind$__vcrt_FlsGetValue 00000001800382a8     libvcruntime:winapi_downlevel.obj
 0002:0000a2a8       $unwind$wcscat_s           00000001800382a8     libucrt:wcscat_s.obj
 0002:0000a2a8       $unwind$?type_case_s@?$output_processor@DV?$stream_output_adapter@D@__crt_stdio_output@@V?$standard_base@DV?$stream_output_adapter@D@__crt_stdio_output@@@2@@__crt_stdio_output@@AEAA_NXZ 00000001800382a8     libucrt:output.obj
 0002:0000a2a8       $unwind$__acrt_freeptd     00000001800382a8     libucrt:per_thread_data.obj
 0002:0000a2a8       $unwind$?GetUnwindTryBlock@__FrameHandler3@@SAHPEA_KPEAU_xDISPATCHER_CONTEXT@@PEBU_s_FuncInfo@@@Z 00000001800382a8     libvcruntime:ehstate.obj
 0002:0000a2a8       $unwind$initialize_pointers 00000001800382a8     libucrt:initialization.obj
 0002:0000a2a8       $unwind$??0bad_alloc@std@@QEAA@AEBV01@@Z 00000001800382a8     LIBCMT:throw_bad_alloc.obj
 0002:0000a2a8       $unwind$_IsExceptionObjectToBeDestroyed 00000001800382a8     libvcruntime:ehhelpers.obj
 0002:0000a2a8       $unwind$__acrt_stdio_free_buffer_nolock 00000001800382a8     libucrt:_freebuf.obj
 0002:0000a2a8       $unwind$_clrfp             00000001800382a8     libucrt:fpctrl.obj
 0002:0000a2a8       $unwind$__scrt_uninitialize_crt 00000001800382a8     LIBCMT:utility.obj
 0002:0000a2a8       $unwind$__scrt_initialize_crt 00000001800382a8     LIBCMT:utility.obj
 0002:0000a2a8       $unwind$_set_statfp        00000001800382a8     libucrt:fpctrl.obj
 0002:0000a2a8       $unwind$__scrt_release_startup_lock 00000001800382a8     LIBCMT:utility.obj
 0002:0000a2a8       $unwind$?__c16rtomb_utf8@__crt_mbstring@@YA_KPEAD_SPEAU_Mbstatet@@@Z 00000001800382a8     libucrt:c16rtomb.obj
 0002:0000a2a8       $unwind$__acrt_AppPolicyGetShowDeveloperDiagnosticInternal 00000001800382a8     libucrt:winapi_thunks.obj
 0002:0000a2a8       $unwind$default_error_callback_fn 00000001800382a8     secp256k1.obj
 0002:0000a2a8       $unwind$?ExecutionInCatch@__FrameHandler3@@SA_NPEAU_xDISPATCHER_CONTEXT@@PEBU_s_FuncInfo@@@Z 00000001800382a8     libvcruntime:risctrnsctrl.obj
 0002:0000a2a8       $unwind$default_illegal_callback_fn 00000001800382a8     secp256k1.obj
 0002:0000a2a8       $unwind$?state_case_normal@?$output_processor@DV?$stream_output_adapter@D@__crt_stdio_output@@V?$standard_base@DV?$stream_output_adapter@D@__crt_stdio_output@@@2@@__crt_stdio_output@@AEAA_NXZ 00000001800382a8     libucrt:output.obj
 0002:0000a2a8       $unwind$strcpy_s           00000001800382a8     libucrt:strcpy_s.obj
 0002:0000a2a8       $unwind$__acrt_FlsGetValue 00000001800382a8     libucrt:winapi_thunks.obj
 0002:0000a2a8       $unwind$_malloc_base       00000001800382a8     libucrt:malloc_base.obj
 0002:0000a2a8       $unwind$__acrt_allocate_buffer_for_argv 00000001800382a8     libucrt:argv_parsing.obj
 0002:0000a2a8       $unwind$_SetImageBase      00000001800382a8     libvcruntime:risctrnsctrl.obj
 0002:0000a2a8       $unwind$__acrt_FlsFree     00000001800382a8     libucrt:winapi_thunks.obj
 0002:0000a2a8       $unwind$__acrt_get_windowing_model_policy 00000001800382a8     libucrt:win_policies.obj
 0002:0000a2a8       $unwind$__acrt_get_developer_information_policy 00000001800382a8     libucrt:win_policies.obj
 0002:0000a2a8       $unwind$__acrt_get_process_end_policy 00000001800382a8     libucrt:win_policies.obj
 0002:0000a2a8       $unwind$_calloc_base       00000001800382a8     libucrt:calloc_base.obj
 0002:0000a2a8       $unwind$_SetThrowImageBase 00000001800382a8     libvcruntime:risctrnsctrl.obj
 0002:0000a2a8       $unwind$__acrt_uninitialize_locks 00000001800382a8     libucrt:locks.obj
 0002:0000a2a8       $unwind$??2@YAPEAX_K@Z     00000001800382a8     LIBCMT:new_scalar.obj
 0002:0000a2a8       $unwind$__acrt_initialize_locks 00000001800382a8     libucrt:locks.obj
 0002:0000a2a8       $unwind$__raise_securityfailure 00000001800382a8     LIBCMT:gs_report.obj
 0002:0000a2a8       $unwind$??0bad_exception@std@@QEAA@AEBV01@@Z 00000001800382a8     libvcruntime:frame.obj
 0002:0000a2a8       $unwind$uninitialize_allocated_memory 00000001800382a8     libucrt:initialization.obj
 0002:0000a2a8       $unwind$_callnewh          00000001800382a8     libucrt:new_handler.obj
 0002:0000a2a8       $unwind$secp256k1_gej_neg  00000001800382a8     secp256k1.obj
 0002:0000a2a8       $unwind$?ExFilterRethrow@@YAHPEAU_EXCEPTION_POINTERS@@PEAUEHExceptionRecord@@PEAH@Z 00000001800382a8     libvcruntime:frame.obj
 0002:0000a2a8       $unwind$__acrt_FlsAlloc    00000001800382a8     libucrt:winapi_thunks.obj
 0002:0000a2a8       $unwind$?try_cor_exit_process@@YAXI@Z 00000001800382a8     libucrt:exit.obj
 0002:0000a2a8       $unwind$_CreateFrameInfo   00000001800382a8     libvcruntime:risctrnsctrl.obj
 0002:0000a2a8       $unwind$__acrt_get_parent_window 00000001800382a8     libucrt:winapi_thunks.obj
 0002:0000a2a8       $unwind$__acrt_update_multibyte_info 00000001800382a8     libucrt:locale_update.obj
 0002:0000a2a8       $unwind$??_Gtype_info@@UEAAPEAXI@Z 00000001800382a8     LIBCMT:std_type_info_static.obj
 0002:0000a2a8       $unwind$__acrt_update_locale_info 00000001800382a8     libucrt:locale_update.obj
 0002:0000a2a8       $unwind$?exit_or_terminate_process@@YAXI@Z 00000001800382a8     libucrt:exit.obj
 0002:0000a2a8       $unwind$?internal_isupper_l@@YA_NHQEAU__crt_locale_pointers@@@Z 00000001800382a8     libucrt:tolower_toupper.obj
 0002:0000a2a8       $unwind$_clearfp           00000001800382a8     libucrt:ieee.obj
 0002:0000a2a8       $unwind$feholdexcept       00000001800382a8     libucrt:feholdexcept.obj
 0002:0000a2a8       $unwind$??0bad_array_new_length@std@@QEAA@AEBV01@@Z 00000001800382a8     LIBCMT:throw_bad_alloc.obj
 0002:0000a2a8       $unwind$fesetenv           00000001800382a8     libucrt:fesetenv.obj
 0002:0000a2a8       $unwind$__acrt_getptd_head 00000001800382a8     libucrt:per_thread_data.obj
 0002:0000a2a8       $unwind$fegetenv           00000001800382a8     libucrt:fegetenv.obj
 0002:0000a2a8       $unwind$__acrt_uninitialize_winapi_thunks 00000001800382a8     libucrt:winapi_thunks.obj
 0002:0000a2a8       $unwind$__acrt_uninitialize_stdio 00000001800382a8     libucrt:_file.obj
 0002:0000a2a8       $unwind$__acrt_AppPolicyGetWindowingModelInternal 00000001800382a8     libucrt:winapi_thunks.obj
 0002:0000a2a8       $unwind$__std_exception_destroy 00000001800382a8     libvcruntime:std_exception.obj
 0002:0000a2a8       $unwind$?DloadAcquireSectionWriteAccess@@YAXXZ 00000001800382a8     DelayImp:delayhlp.obj
 0002:0000a2a8       $unwind$?StateFromIp@__FrameHandler3@@SAHPEBU_s_FuncInfo@@PEAU_xDISPATCHER_CONTEXT@@_K@Z 00000001800382a8     libvcruntime:ehstate.obj
 0002:0000a2a8       $unwind$__std_type_info_destroy_list 00000001800382a8     libvcruntime:std_type_info.obj
 0002:0000a2b0       $unwind$secp256k1_gej_double_var 00000001800382b0     secp256k1.obj
 0002:0000a2c0       $chain$2$secp256k1_gej_double_var 00000001800382c0     secp256k1.obj
 0002:0000a2dc       $chain$3$secp256k1_gej_double_var 00000001800382dc     secp256k1.obj
 0002:0000a2ec       $unwind$secp256k1_gej_add_var 00000001800382ec     secp256k1.obj
 0002:0000a308       $chain$3$secp256k1_gej_add_var 0000000180038308     secp256k1.obj
 0002:0000a31c       $unwind$secp256k1_gej_add_ge_var 000000018003831c     secp256k1.obj
 0002:0000a31c       $unwind$secp256k1_gej_add_zinv_var 000000018003831c     secp256k1.obj
 0002:0000a334       $chain$1$secp256k1_gej_add_ge_var 0000000180038334     secp256k1.obj
 0002:0000a34c       $chain$2$secp256k1_gej_add_ge_var 000000018003834c     secp256k1.obj
 0002:0000a35c       $chain$1$secp256k1_gej_add_zinv_var 000000018003835c     secp256k1.obj
 0002:0000a374       $chain$2$secp256k1_gej_add_zinv_var 0000000180038374     secp256k1.obj
 0002:0000a384       $unwind$secp256k1_gej_add_ge 0000000180038384     secp256k1.obj
 0002:0000a39c       $unwind$secp256k1_ge_to_storage 000000018003839c     secp256k1.obj
 0002:0000a3ac       $unwind$secp256k1_ecmult_odd_multiples_table 00000001800383ac     secp256k1.obj
 0002:0000a3c8       $unwind$secp256k1_ecmult_odd_multiples_table_storage_var 00000001800383c8     secp256k1.obj
 0002:0000a3ec       $unwind$secp256k1_ecmult_wnaf 00000001800383ec     secp256k1.obj
 0002:0000a40c       $unwind$secp256k1_ecmult_strauss_wnaf 000000018003840c     secp256k1.obj
 0002:0000a430       $unwind$secp256k1_wnaf_const 0000000180038430     secp256k1.obj
 0002:0000a448       $unwind$secp256k1_ecmult_const 0000000180038448     secp256k1.obj
 0002:0000a46c       $unwind$secp256k1_sha256_transform 000000018003846c     secp256k1.obj
 0002:0000a484       $unwind$secp256k1_sha256_write 0000000180038484     secp256k1.obj
 0002:0000a494       $chain$1$secp256k1_sha256_write 0000000180038494     secp256k1.obj
 0002:0000a4ac       $chain$2$secp256k1_sha256_write 00000001800384ac     secp256k1.obj
 0002:0000a4bc       $unwind$secp256k1_sha256_finalize 00000001800384bc     secp256k1.obj
 0002:0000a4d4       $chain$1$secp256k1_sha256_finalize 00000001800384d4     secp256k1.obj
 0002:0000a4ec       $chain$2$secp256k1_sha256_finalize 00000001800384ec     secp256k1.obj
 0002:0000a4fc       $unwind$secp256k1_hmac_sha256_initialize 00000001800384fc     secp256k1.obj
 0002:0000a52c       $unwind$secp256k1_hmac_sha256_finalize 000000018003852c     secp256k1.obj
 0002:0000a544       $chain$0$secp256k1_hmac_sha256_finalize 0000000180038544     secp256k1.obj
 0002:0000a558       $chain$1$secp256k1_hmac_sha256_finalize 0000000180038558     secp256k1.obj
 0002:0000a568       $unwind$secp256k1_rfc6979_hmac_sha256_initialize 0000000180038568     secp256k1.obj
 0002:0000a58c       $unwind$secp256k1_rfc6979_hmac_sha256_generate 000000018003858c     secp256k1.obj
 0002:0000a5b0       $unwind$secp256k1_ecmult_gen_context_build 00000001800385b0     secp256k1.obj
 0002:0000a5c8       $chain$1$secp256k1_ecmult_gen_context_build 00000001800385c8     secp256k1.obj
 0002:0000a5e0       $chain$4$secp256k1_ecmult_gen_context_build 00000001800385e0     secp256k1.obj
 0002:0000a5fc       $chain$6$secp256k1_ecmult_gen_context_build 00000001800385fc     secp256k1.obj
 0002:0000a614       $chain$7$secp256k1_ecmult_gen_context_build 0000000180038614     secp256k1.obj
 0002:0000a624       $chain$8$secp256k1_ecmult_gen_context_build 0000000180038624     secp256k1.obj
 0002:0000a638       $chain$9$secp256k1_ecmult_gen_context_build 0000000180038638     secp256k1.obj
 0002:0000a648       $unwind$secp256k1_ecmult_gen 0000000180038648     secp256k1.obj
 0002:0000a66c       $unwind$secp256k1_ecmult_gen_blind 000000018003866c     secp256k1.obj
 0002:0000a690       $unwind$secp256k1_der_parse_integer 0000000180038690     secp256k1.obj
 0002:0000a6a8       $unwind$secp256k1_eckey_pubkey_parse 00000001800386a8     secp256k1.obj
 0002:0000a6c4       $unwind$secp256k1_pubkey_load 00000001800386c4     secp256k1.obj
 0002:0000a6cc       $unwind$secp256k1_ec_pubkey_parse 00000001800386cc     secp256k1.obj
 0002:0000a6e0       $unwind$secp256k1_ec_pubkey_serialize 00000001800386e0     secp256k1.obj
 0002:0000a6fc       $chain$1$secp256k1_ec_pubkey_serialize 00000001800386fc     secp256k1.obj
 0002:0000a714       $chain$2$secp256k1_ec_pubkey_serialize 0000000180038714     secp256k1.obj
 0002:0000a724       $unwind$secp256k1_ecdsa_signature_parse_compact 0000000180038724     secp256k1.obj
 0002:0000a738       $unwind$secp256k1_ecdsa_signature_serialize_der 0000000180038738     secp256k1.obj
 0002:0000a74c       $chain$2$secp256k1_ecdsa_signature_serialize_der 000000018003874c     secp256k1.obj
 0002:0000a768       $chain$3$secp256k1_ecdsa_signature_serialize_der 0000000180038768     secp256k1.obj
 0002:0000a778       $unwind$secp256k1_ecdsa_verify 0000000180038778     secp256k1.obj
 0002:0000a790       $chain$3$secp256k1_ecdsa_verify 0000000180038790     secp256k1.obj
 0002:0000a7b0       $chain$4$secp256k1_ecdsa_verify 00000001800387b0     secp256k1.obj
 0002:0000a7c0       $unwind$nonce_function_rfc6979 00000001800387c0     secp256k1.obj
 0002:0000a7d4       $unwind$?__scrt_throw_std_bad_array_new_length@@YAXXZ 00000001800387d4     LIBCMT:throw_bad_alloc.obj
 0002:0000a7d4       $unwind$_raise_exc         00000001800387d4     libucrt:fpexcept.obj
 0002:0000a7d4       $unwind$secp256k1_ec_seckey_verify 00000001800387d4     secp256k1.obj
 0002:0000a7d4       $unwind$?__scrt_throw_std_bad_alloc@@YAXXZ 00000001800387d4     LIBCMT:throw_bad_alloc.obj
 0002:0000a7dc       $unwind$secp256k1_ec_pubkey_create 00000001800387dc     secp256k1.obj
 0002:0000a7e8       $chain$0$secp256k1_ec_pubkey_create 00000001800387e8     secp256k1.obj
 0002:0000a7fc       $chain$2$secp256k1_ec_pubkey_create 00000001800387fc     secp256k1.obj
 0002:0000a810       $chain$5$secp256k1_ec_pubkey_create 0000000180038810     secp256k1.obj
 0002:0000a828       $unwind$secp256k1_ec_pubkey_tweak_mul 0000000180038828     secp256k1.obj
 0002:0000a828       $unwind$secp256k1_ec_pubkey_tweak_add 0000000180038828     secp256k1.obj
 0002:0000a844       $chain$0$secp256k1_ec_pubkey_tweak_add 0000000180038844     secp256k1.obj
 0002:0000a858       $chain$1$secp256k1_ec_pubkey_tweak_add 0000000180038858     secp256k1.obj
 0002:0000a868       $chain$0$secp256k1_ec_pubkey_tweak_mul 0000000180038868     secp256k1.obj
 0002:0000a87c       $chain$1$secp256k1_ec_pubkey_tweak_mul 000000018003887c     secp256k1.obj
 0002:0000a88c       $unwind$secp256k1_ec_pubkey_combine 000000018003888c     secp256k1.obj
 0002:0000a8a8       $chain$1$secp256k1_ec_pubkey_combine 00000001800388a8     secp256k1.obj
 0002:0000a8c0       $chain$2$secp256k1_ec_pubkey_combine 00000001800388c0     secp256k1.obj
 0002:0000a8d0       $unwind$ecdh_hash_function_sha256 00000001800388d0     secp256k1.obj
 0002:0000a8e8       $chain$0$ecdh_hash_function_sha256 00000001800388e8     secp256k1.obj
 0002:0000a8fc       $chain$1$ecdh_hash_function_sha256 00000001800388fc     secp256k1.obj
 0002:0000a90c       $unwind$secp256k1_ecdh     000000018003890c     secp256k1.obj
 0002:0000a928       $unwind$secp256k1_ecdsa_sign_recoverable 0000000180038928     secp256k1.obj
 0002:0000a948       $chain$0$secp256k1_ecdsa_sign_recoverable 0000000180038948     secp256k1.obj
 0002:0000a95c       $chain$1$secp256k1_ecdsa_sign_recoverable 000000018003895c     secp256k1.obj
 0002:0000a96c       $chain$2$secp256k1_ecdsa_sign_recoverable 000000018003896c     secp256k1.obj
 0002:0000a980       $unwind$secp256k1_ecdsa_recover 0000000180038980     secp256k1.obj
 0002:0000a998       $chain$2$secp256k1_ecdsa_recover 0000000180038998     secp256k1.obj
 0002:0000a9b4       $chain$3$secp256k1_ecdsa_recover 00000001800389b4     secp256k1.obj
 0002:0000a9c4       $chain$4$secp256k1_ecdsa_recover 00000001800389c4     secp256k1.obj
 0002:0000a9e0       $unwind$ecdsa_signature_parse_der_lax 00000001800389e0     lax_der_parsing.obj
 0002:0000aa00       $unwind$ec_privkey_export_der 0000000180038a00     lax_der_privatekey_parsing.obj
 0002:0000aa1c       $chain$0$ec_privkey_export_der 0000000180038a1c     lax_der_privatekey_parsing.obj
 0002:0000aa30       $chain$1$ec_privkey_export_der 0000000180038a30     lax_der_privatekey_parsing.obj
 0002:0000aa40       xdata                      0000000180038a40     node:node.exe
 0002:0000aa48       $xdatasym                  0000000180038a48     LIBCMT:_amdsecgs_.obj
 0002:0000aa4c       $unwind$?dllmain_crt_process_attach@@YAHQEAUHINSTANCE__@@QEAX@Z 0000000180038a4c     LIBCMT:dll_dllmain.obj
 0002:0000aa88       $unwind$__DestructExceptionObject$filt$0 0000000180038a88     libvcruntime:ehhelpers.obj
 0002:0000aa88       $unwind$__acrt_update_thread_locale_data$fin$0 0000000180038a88     libucrt:locale_refcounting.obj
 0002:0000aa88       $unwind$__acrt_initialize_lowio$fin$0 0000000180038a88     libucrt:ioinit.obj
 0002:0000aa88       $unwind$?fin$0@?0???$?RV<lambda_7777bce6b2f8c936911f934f8298dc43>@@AEAV<lambda_f03950bc5685219e0bcd2087efbe011e>@@V<lambda_3883c3dff614d5e0c5f61bb1ac94921c>@@@?$__crt_seh_guarded_call@H@@QEAAH$$QEAV<lambda_7777bce6b2f8c936911f934f8298dc43>@@AEAV<lambda_f03950bc5685219e0bcd2087efbe011e>@@$$QEAV<lambda_3883c3dff614d5e0c5f61bb1ac94921c>@@@Z@4HA 0000000180038a88     libucrt:onexit.obj
 0002:0000aa88       $unwind$raise$fin$0        0000000180038a88     libucrt:signal.obj
 0002:0000aa88       $unwind$?fin$0@?0???$?RV<lambda_84ec643ea9557e2f7dc01bb0e9624395>@@AEAV<lambda_ca71763b3c0644891230e4f79ea54fa6>@@V<lambda_439a761618c59b0600e24586724d733b>@@@?$__crt_seh_guarded_call@H@@QEAAH$$QEAV<lambda_84ec643ea9557e2f7dc01bb0e9624395>@@AEAV<lambda_ca71763b3c0644891230e4f79ea54fa6>@@$$QEAV<lambda_439a761618c59b0600e24586724d733b>@@@Z@4HA 0000000180038a88     libucrt:setvbuf.obj
 0002:0000aa88       $unwind$?fin$0@?0???$?RV<lambda_2d41944a1d46af3157314b8a01080d33>@@AEAV<lambda_8f455de75cd7d7f24b4096f044d8b9e6>@@V<lambda_aa500f224e6afead328df44964fe2772>@@@?$__crt_seh_guarded_call@X@@QEAAX$$QEAV<lambda_2d41944a1d46af3157314b8a01080d33>@@AEAV<lambda_8f455de75cd7d7f24b4096f044d8b9e6>@@$$QEAV<lambda_aa500f224e6afead328df44964fe2772>@@@Z@4HA 0000000180038a88     libucrt:per_thread_data.obj
 0002:0000aa88       $unwind$?fin$0@?0??dllmain_crt_process_detach@@YAH_N@Z@4HA 0000000180038a88     LIBCMT:dll_dllmain.obj
 0002:0000aa88       $unwind$_query_new_handler$fin$0 0000000180038a88     libucrt:new_handler.obj
 0002:0000aa88       $unwind$_write$fin$0       0000000180038a88     libucrt:write.obj
 0002:0000aa88       $unwind$?filt$0@?0???R<lambda_6e4b09c48022b2350581041d5f6b0c4c>@@QEBA@XZ@4HA 0000000180038a88     libucrt:exit.obj
 0002:0000aa88       $unwind$?fin$0@?0???$?RV<lambda_886d6c58226a84441f68b9f2b8217b83>@@AEAV<lambda_ab61a845afdef5b7c387490eaf3616ee>@@V<lambda_f7f22ab5edc0698d5f6905b0d3f44752>@@@?$__crt_seh_guarded_call@X@@QEAAX$$QEAV<lambda_886d6c58226a84441f68b9f2b8217b83>@@AEAV<lambda_ab61a845afdef5b7c387490eaf3616ee>@@$$QEAV<lambda_f7f22ab5edc0698d5f6905b0d3f44752>@@@Z@4HA 0000000180038a88     libucrt:fflush.obj
 0002:0000aa88       $unwind$?fin$0@?0???$?RV<lambda_f2e299630e499de9f9a165e60fcd3db5>@@AEAV<lambda_2ae9d31cdba2644fcbeaf08da7c24588>@@V<lambda_40d01ff24d0e7b3814fdbdcee8eab3c7>@@@?$__crt_seh_guarded_call@X@@QEAAX$$QEAV<lambda_f2e299630e499de9f9a165e60fcd3db5>@@AEAV<lambda_2ae9d31cdba2644fcbeaf08da7c24588>@@$$QEAV<lambda_40d01ff24d0e7b3814fdbdcee8eab3c7>@@@Z@4HA 0000000180038a88     libucrt:per_thread_data.obj
 0002:0000aa88       $unwind$?fin$0@?0???$?RV<lambda_842d9ff0dc9ef11c61343bbaebe7f885>@@AEAV<lambda_c5860995281e5c4ce005b3de8f5874ee>@@V<lambda_d90129c13df834fdcbf8d2b88dafcf2d>@@@?$__crt_seh_guarded_call@X@@QEAAX$$QEAV<lambda_842d9ff0dc9ef11c61343bbaebe7f885>@@AEAV<lambda_c5860995281e5c4ce005b3de8f5874ee>@@$$QEAV<lambda_d90129c13df834fdcbf8d2b88dafcf2d>@@@Z@4HA 0000000180038a88     libucrt:fflush.obj
 0002:0000aa88       $unwind$?fin$0@?0???$?RV<lambda_c376a267cfb53b6959b3b692ec76b120>@@AEAV<lambda_9a32fed5bf61b6b509b2d3f6003082a1>@@V<lambda_572fbb9fa0ab338edf41edfd4b5fcc8d>@@@?$__crt_seh_guarded_call@H@@QEAAH$$QEAV<lambda_c376a267cfb53b6959b3b692ec76b120>@@AEAV<lambda_9a32fed5bf61b6b509b2d3f6003082a1>@@$$QEAV<lambda_572fbb9fa0ab338edf41edfd4b5fcc8d>@@@Z@4HA 0000000180038a88     libucrt:fflush.obj
 0002:0000aa88       $unwind$?fin$0@?0???$?RV<lambda_aa87e3671a710a21b5dc78c0bdf72e11>@@AEAV<lambda_92619d2358a28f41a33ba319515a20b9>@@V<lambda_6992ecaafeb10aed2b74cb1fae11a551>@@@?$__crt_seh_guarded_call@X@@QEAAX$$QEAV<lambda_aa87e3671a710a21b5dc78c0bdf72e11>@@AEAV<lambda_92619d2358a28f41a33ba319515a20b9>@@$$QEAV<lambda_6992ecaafeb10aed2b74cb1fae11a551>@@@Z@4HA 0000000180038a88     libucrt:per_thread_data.obj
 0002:0000aa88       $unwind$?fin$0@?0???$?RV<lambda_0ae27a3a962d80f24befdcbee591983d>@@AEAV<lambda_8d0ee55de4b1038c4002e0adecdf1839>@@V<lambda_dc504788e8f1664fe9b84e20bfb512f2>@@@?$__crt_seh_guarded_call@X@@QEAAX$$QEAV<lambda_0ae27a3a962d80f24befdcbee591983d>@@AEAV<lambda_8d0ee55de4b1038c4002e0adecdf1839>@@$$QEAV<lambda_dc504788e8f1664fe9b84e20bfb512f2>@@@Z@4HA 0000000180038a88     libucrt:per_thread_data.obj
 0002:0000aa88       $unwind$?fin$0@?0???$?RV<lambda_410d79af7f07d98d83a3f525b3859a53>@@AEAV<lambda_3e16ef9562a7dcce91392c22ab16ea36>@@V<lambda_38119f0e861e05405d8a144b9b982f0a>@@@?$__crt_seh_guarded_call@X@@QEAAX$$QEAV<lambda_410d79af7f07d98d83a3f525b3859a53>@@AEAV<lambda_3e16ef9562a7dcce91392c22ab16ea36>@@$$QEAV<lambda_38119f0e861e05405d8a144b9b982f0a>@@@Z@4HA 0000000180038a88     libucrt:wsetlocale.obj
 0002:0000aa88       $unwind$_ctrlfp$filt$0     0000000180038a88     libucrt:fpctrl.obj
 0002:0000aa88       $unwind$?filt$0@?0??CxxCallCatchBlock@__FrameHandler3@@SAPEAXPEAU_EXCEPTION_RECORD@@@Z@4HA 0000000180038a88     libvcruntime:frame.obj
 0002:0000aa88       $unwind$?fin$0@?0???$?RV<lambda_0d412022a4b28cc8a401ea49574e8ae6>@@AEAV<lambda_a775ed57af18ba8e4d5dc780aa9068fe>@@V<lambda_975a71a6baa488a08f4e15f6b0339b9e>@@@?$__crt_seh_guarded_call@H@@QEAAH$$QEAV<lambda_0d412022a4b28cc8a401ea49574e8ae6>@@AEAV<lambda_a775ed57af18ba8e4d5dc780aa9068fe>@@$$QEAV<lambda_975a71a6baa488a08f4e15f6b0339b9e>@@@Z@4HA 0000000180038a88     libucrt:output.obj
 0002:0000aa88       $unwind$?fin$0@?0??dllmain_crt_process_attach@@YAHQEAUHINSTANCE__@@QEAX@Z@4HA 0000000180038a88     LIBCMT:dll_dllmain.obj
 0002:0000aa88       $unwind$?fin$1@?0??FrameUnwindToState@__FrameHandler3@@SAXPEA_KPEAU_xDISPATCHER_CONTEXT@@PEBU_s_FuncInfo@@H@Z@4HA 0000000180038a88     libvcruntime:frame.obj
 0002:0000aa88       $unwind$__acrt_lowio_ensure_fh_exists$fin$0 0000000180038a88     libucrt:osfinfo.obj
 0002:0000aa88       $unwind$fclose$fin$0       0000000180038a88     libucrt:fclose.obj
 0002:0000aa88       $unwind$_fcloseall$fin$0   0000000180038a88     libucrt:closeall.obj
 0002:0000aa88       $unwind$?filt$0@?0??FrameUnwindToState@__FrameHandler3@@SAXPEA_KPEAU_xDISPATCHER_CONTEXT@@PEBU_s_FuncInfo@@H@Z@4HA 0000000180038a88     libvcruntime:frame.obj
 0002:0000aa88       $unwind$?fin$0@?0??update_thread_multibyte_data_internal@@YAPEAU__crt_multibyte_data@@QEAU__acrt_ptd@@QEAPEAU1@@Z@4HA 0000000180038a88     libucrt:mbctype.obj
 0002:0000aa88       $unwind$?fin$0@?0???$?RV<lambda_efdfa57d1f175319df784efa44bb7b81>@@AEAV<lambda_5f0a4c1567f8adc6734073e5d1e1b35c>@@V<lambda_2e8a7d3640ea6ccb4c2413664c2db6fd>@@@?$__crt_seh_guarded_call@X@@QEAAX$$QEAV<lambda_efdfa57d1f175319df784efa44bb7b81>@@AEAV<lambda_5f0a4c1567f8adc6734073e5d1e1b35c>@@$$QEAV<lambda_2e8a7d3640ea6ccb4c2413664c2db6fd>@@@Z@4HA 0000000180038a88     libucrt:mbctype.obj
 0002:0000aa88       $unwind$?fin$0@?0???$?RV<lambda_450d765d439847d4c735a33c368b5fc0>@@AEAV<lambda_44731a7d0e6d81c3e6aa82d741081786>@@V<lambda_601a2a7da3b7a96e9554ac7215c4b07c>@@@?$__crt_seh_guarded_call@P6AXH@Z@@QEAAP6AXH@Z$$QEAV<lambda_450d765d439847d4c735a33c368b5fc0>@@AEAV<lambda_44731a7d0e6d81c3e6aa82d741081786>@@$$QEAV<lambda_601a2a7da3b7a96e9554ac7215c4b07c>@@@Z@4HA 0000000180038a88     libucrt:signal.obj
 0002:0000aa88       $unwind$?fin$0@?0???$?RV<lambda_d80eeec6fff315bfe5c115232f3240e3>@@AEAV<lambda_6e4b09c48022b2350581041d5f6b0c4c>@@V<lambda_2358e3775559c9db80273638284d5e45>@@@?$__crt_seh_guarded_call@X@@QEAAX$$QEAV<lambda_d80eeec6fff315bfe5c115232f3240e3>@@AEAV<lambda_6e4b09c48022b2350581041d5f6b0c4c>@@$$QEAV<lambda_2358e3775559c9db80273638284d5e45>@@@Z@4HA 0000000180038a88     libucrt:exit.obj
 0002:0000aa88       $unwind$?fin$0@?0???$?RV<lambda_a37b2b86f63e897a80ea819b0eb08c01>@@AEAV<lambda_38ce7e780aa69e748d6df282ebc68efe>@@V<lambda_99fb1378e971ab6e7edea83e3a7a83a2>@@@?$__crt_seh_guarded_call@H@@QEAAH$$QEAV<lambda_a37b2b86f63e897a80ea819b0eb08c01>@@AEAV<lambda_38ce7e780aa69e748d6df282ebc68efe>@@$$QEAV<lambda_99fb1378e971ab6e7edea83e3a7a83a2>@@@Z@4HA 0000000180038a88     libucrt:commit.obj
 0002:0000aa88       $unwind$_IsNonwritableInCurrentImage$filt$0 0000000180038a88     LIBCMT:pesect.obj
 0002:0000aa88       $unwind$?fin$0@?0???$?RV<lambda_751a882b2c74d4b022dec766aa51a29a>@@AEAV<lambda_628dfdc04ba53c8bfc02c9951375f3f5>@@V<lambda_f6c7be5f7998530c34de24c7437d6b54>@@@?$__crt_seh_guarded_call@H@@QEAAH$$QEAV<lambda_751a882b2c74d4b022dec766aa51a29a>@@AEAV<lambda_628dfdc04ba53c8bfc02c9951375f3f5>@@$$QEAV<lambda_f6c7be5f7998530c34de24c7437d6b54>@@@Z@4HA 0000000180038a88     libucrt:close.obj
 0002:0000aa88       $unwind$?fin$0@?0???$?RV<lambda_a62c933ada0517137acf5807a1eeac1f>@@AEAV<lambda_a31071773b9a94e445cbd5d04ef99106>@@V<lambda_56065050dbf3ada7e59a83db45153de3>@@@?$__crt_seh_guarded_call@H@@QEAAH$$QEAV<lambda_a62c933ada0517137acf5807a1eeac1f>@@AEAV<lambda_a31071773b9a94e445cbd5d04ef99106>@@$$QEAV<lambda_56065050dbf3ada7e59a83db45153de3>@@@Z@4HA 0000000180038a88     libucrt:output.obj
 0002:0000aa88       $unwind$?fin$0@?0???$common_lseek@_J@@YA_JH_JH@Z@4HA 0000000180038a88     libucrt:lseek.obj
 0002:0000aa90       $unwind$?dllmain_crt_process_detach@@YAH_N@Z 0000000180038a90     LIBCMT:dll_dllmain.obj
 0002:0000aac8       $unwind$__scrt_dllmain_before_initialize_c 0000000180038ac8     LIBCMT:utility.obj
 0002:0000aac8       $unwind$__doserrno         0000000180038ac8     libucrt:errno.obj
 0002:0000aac8       $unwind$_errno             0000000180038ac8     libucrt:errno.obj
 0002:0000aac8       $unwind$__scrt_dllmain_after_initialize_c 0000000180038ac8     LIBCMT:utility.obj
 0002:0000aac8       $unwind$_set_errno_from_matherr 0000000180038ac8     libucrt:fpexcept.obj
 0002:0000aac8       $unwind$__GSHandlerCheck   0000000180038ac8     LIBCMT:_gshandler_.obj
 0002:0000aac8       $unwind$__scrt_dllmain_uninitialize_c 0000000180038ac8     LIBCMT:utility.obj
 0002:0000aac8       $unwind$__acrt_release_locale_ref 0000000180038ac8     libucrt:locale_refcounting.obj
 0002:0000aac8       $unwind$__acrt_DownlevelLocaleNameToLCID 0000000180038ac8     libucrt:lcidtoname_downlevel.obj
 0002:0000aac8       $unwind$_statfp            0000000180038ac8     libucrt:fpctrl.obj
 0002:0000aac8       $unwind$?DloadReleaseSectionWriteAccess@@YAXXZ 0000000180038ac8     DelayImp:delayhlp.obj
 0002:0000aac8       $unwind$__scrt_acquire_startup_lock 0000000180038ac8     LIBCMT:utility.obj
 0002:0000aac8       $unwind$?state_case_size@?$output_processor@DV?$stream_output_adapter@D@__crt_stdio_output@@V?$standard_base@DV?$stream_output_adapter@D@__crt_stdio_output@@@2@@__crt_stdio_output@@AEAA_NXZ 0000000180038ac8     libucrt:output.obj
 0002:0000aac8       $unwind$__scrt_dllmain_uninitialize_critical 0000000180038ac8     LIBCMT:utility.obj
 0002:0000aac8       $unwind$?state_case_size@?$output_processor@_WV?$stream_output_adapter@_W@__crt_stdio_output@@V?$standard_base@_WV?$stream_output_adapter@_W@__crt_stdio_output@@@2@@__crt_stdio_output@@AEAA_NXZ 0000000180038ac8     libucrt:output.obj
 0002:0000aac8       $unwind$?__c32rtomb_utf8@__crt_mbstring@@YA_KPEAD_UPEAU_Mbstatet@@@Z 0000000180038ac8     libucrt:c32rtomb.obj
 0002:0000aac8       $unwind$__scrt_dllmain_crt_thread_attach 0000000180038ac8     LIBCMT:utility.obj
 0002:0000aac8       $unwind$abort              0000000180038ac8     libucrt:abort.obj
 0002:0000aac8       $unwind$?state_case_size@?$output_processor@_WV?$string_output_adapter@_W@__crt_stdio_output@@V?$standard_base@_WV?$string_output_adapter@_W@__crt_stdio_output@@@2@@__crt_stdio_output@@AEAA_NXZ 0000000180038ac8     libucrt:output.obj
 0002:0000aac8       $unwind$__scrt_dllmain_crt_thread_detach 0000000180038ac8     LIBCMT:utility.obj
 0002:0000aac8       $unwind$_stricmp           0000000180038ac8     libucrt:stricmp.obj
 0002:0000aac8       $unwind$?dllmain_crt_dispatch@@YAHQEAUHINSTANCE__@@KQEAX@Z 0000000180038ac8     LIBCMT:dll_dllmain.obj
 0002:0000aac8       $unwind$__vcrt_freefls     0000000180038ac8     libvcruntime:per_thread_data.obj
 0002:0000aac8       $unwind$uninitialize_allocated_io_buffers 0000000180038ac8     libucrt:initialization.obj
 0002:0000aac8       $unwind$__vcrt_getptd      0000000180038ac8     libvcruntime:per_thread_data.obj
 0002:0000aac8       $unwind$__vcrt_uninitialize_ptd 0000000180038ac8     libvcruntime:per_thread_data.obj
 0002:0000aac8       $unwind$_fileno            0000000180038ac8     libucrt:fileno.obj
 0002:0000aac8       $unwind$__vcrt_initialize_ptd 0000000180038ac8     libvcruntime:per_thread_data.obj
 0002:0000aac8       $unwind$__dcrt_terminate_console_output 0000000180038ac8     libucrt:initcon.obj
 0002:0000aac8       $unwind$_get_osfhandle     0000000180038ac8     libucrt:osfinfo.obj
 0002:0000aac8       $unwind$_isatty            0000000180038ac8     libucrt:isatty.obj
 0002:0000aac8       $unwind$__scrt_initialize_default_local_stdio_options 0000000180038ac8     LIBCMT:default_local_stdio_options.obj
 0002:0000aac8       $unwind$_GetImageBase      0000000180038ac8     libvcruntime:risctrnsctrl.obj
 0002:0000aac8       $unwind$__acrt_initialize_ptd 0000000180038ac8     libucrt:per_thread_data.obj
 0002:0000aac8       $unwind$__FrameUnwindFilter 0000000180038ac8     libvcruntime:ehhelpers.obj
 0002:0000aac8       $unwind$uninitialize_environment 0000000180038ac8     libucrt:initialization.obj
 0002:0000aac8       $unwind$_GetThrowImageBase 0000000180038ac8     libvcruntime:risctrnsctrl.obj
 0002:0000aac8       $unwind$initialize_c       0000000180038ac8     libucrt:initialization.obj
 0002:0000aac8       $unwind$__acrt_uninitialize_critical 0000000180038ac8     libucrt:initialization.obj
 0002:0000aac8       $unwind$??$uninitialize_environment_internal@_W@@YAXAEAPEAPEA_W@Z 0000000180038ac8     libucrt:environment_initialization.obj
 0002:0000aac8       $unwind$__acrt_thread_detach 0000000180038ac8     libucrt:initialization.obj
 0002:0000aac8       $unwind$tolower            0000000180038ac8     libucrt:tolower_toupper.obj
 0002:0000aac8       $unwind$_invoke_watson     0000000180038ac8     libucrt:invalid_parameter.obj
 0002:0000aac8       $unwind$__acrt_thread_attach 0000000180038ac8     libucrt:initialization.obj
 0002:0000aac8       $unwind$__acrt_update_thread_multibyte_data 0000000180038ac8     libucrt:mbctype.obj
 0002:0000aac8       $unwind$__acrt_uninitialize_ptd 0000000180038ac8     libucrt:per_thread_data.obj
 0002:0000aac8       $unwind$__acrt_initialize_multibyte 0000000180038ac8     libucrt:mbctype.obj
 0002:0000aac8       $unwind$__vcrt_thread_detach 0000000180038ac8     libvcruntime:initialization.obj
 0002:0000aac8       $unwind$__pctype_func      0000000180038ac8     libucrt:ctype.obj
 0002:0000aac8       $unwind$__vcrt_thread_attach 0000000180038ac8     libvcruntime:initialization.obj
 0002:0000aac8       $unwind$?initialize_multibyte@@YAHXZ 0000000180038ac8     libucrt:multibyte_initializer.obj
 0002:0000aac8       $unwind$__dcrt_uninitialize_environments_nolock 0000000180038ac8     libucrt:environment_initialization.obj
 0002:0000aac8       $unwind$__vcrt_uninitialize_critical 0000000180038ac8     libvcruntime:initialization.obj
 0002:0000aac8       $unwind$__acrt_uninitialize 0000000180038ac8     libucrt:initialization.obj
 0002:0000aac8       $unwind$_set_error_mode    0000000180038ac8     libucrt:set_error_mode.obj
 0002:0000aac8       $unwind$__acrt_initialize_heap 0000000180038ac8     libucrt:heap_handle.obj
 0002:0000aac8       $unwind$_msize_base        0000000180038ac8     libucrt:msize.obj
 0002:0000aac8       $unwind$__vcrt_uninitialize 0000000180038ac8     libvcruntime:initialization.obj
 0002:0000aac8       $unwind$__report_rangecheckfailure 0000000180038ac8     LIBCMT:gs_report.obj
 0002:0000aac8       $unwind$?GetCurrentState@__FrameHandler3@@SAHPEA_KPEAU_xDISPATCHER_CONTEXT@@PEBU_s_FuncInfo@@@Z 0000000180038ac8     libvcruntime:ehstate.obj
 0002:0000aac8       $unwind$??$uninitialize_environment_internal@D@@YAXAEAPEAPEAD@Z 0000000180038ac8     libucrt:environment_initialization.obj
 0002:0000aac8       $unwind$?validate_stream_is_ansi_if_required@?$__acrt_stdio_char_traits@D@@SA_NQEAU_iobuf@@@Z 0000000180038ac8     libucrt:output.obj
 0002:0000aac8       $unwind$__vcrt_initialize  0000000180038ac8     libvcruntime:initialization.obj
 0002:0000aac8       $unwind$__acrt_initialize_command_line 0000000180038ac8     libucrt:argv_data.obj
 0002:0000aad0       $unwind$?dllmain_dispatch@@YAHQEAUHINSTANCE__@@KQEAX@Z 0000000180038ad0     LIBCMT:dll_dllmain.obj
 0002:0000aaf8       $unwind$?filt$0@?0??dllmain_dispatch@@YAHQEAUHINSTANCE__@@KQEAX@Z@4HA 0000000180038af8     LIBCMT:dll_dllmain.obj
 0002:0000ab00       $unwind$__report_securityfailure 0000000180038b00     LIBCMT:gs_report.obj
 0002:0000ab08       $unwind$__report_gsfailure 0000000180038b08     LIBCMT:gs_report.obj
 0002:0000ab10       $unwind$capture_current_context 0000000180038b10     LIBCMT:gs_report.obj
 0002:0000ab1c       $unwind$capture_previous_context 0000000180038b1c     LIBCMT:gs_report.obj
 0002:0000ab28       $unwind$__security_init_cookie 0000000180038b28     LIBCMT:gs_support.obj
 0002:0000ab34       $unwind$__scrt_is_nonwritable_in_current_image 0000000180038b34     LIBCMT:utility.obj
 0002:0000ab54       $unwind$__scrt_is_nonwritable_in_current_image$filt$0 0000000180038b54     LIBCMT:utility.obj
 0002:0000ab5c       $unwind$__dcrt_lowio_ensure_console_output_initialized 0000000180038b5c     libucrt:initcon.obj
 0002:0000ab5c       $unwind$_isleadbyte_l      0000000180038b5c     libucrt:_wctype.obj
 0002:0000ab5c       $unwind$?getSystemCP@@YAHH@Z 0000000180038b5c     libucrt:mbctype.obj
 0002:0000ab5c       $unwind$isdigit            0000000180038b5c     libucrt:_ctype.obj
 0002:0000ab5c       $unwind$__scrt_initialize_onexit_tables 0000000180038b5c     LIBCMT:utility.obj
 0002:0000ab64       $unwind$_recalloc_base     0000000180038b64     libucrt:recalloc.obj
 0002:0000ab64       $unwind$__scrt_dllmain_exception_filter 0000000180038b64     LIBCMT:utility.obj
 0002:0000ab64       $unwind$__acrt_lowio_create_handle_array 0000000180038b64     libucrt:osfinfo.obj
 0002:0000ab64       $unwind$_initterm          0000000180038b64     libucrt:initterm.obj
 0002:0000ab64       $unwind$?setSBCS@@YAXPEAU__crt_multibyte_data@@@Z 0000000180038b64     libucrt:mbctype.obj
 0002:0000ab64       $unwind$__acrt_show_wide_message_box 0000000180038b64     libucrt:crtmbox.obj
 0002:0000ab64       $unwind$??$ensure_buffer_is_big_enough@_W@formatting_buffer@__crt_stdio_output@@QEAA_N_K@Z 0000000180038b64     libucrt:output.obj
 0002:0000ab64       $unwind$??$common_xtox@K_W@@YAHKQEA_W_KI_N@Z 0000000180038b64     libucrt:xtoa.obj
 0002:0000ab64       $unwind$_wassert           0000000180038b64     libucrt:assert.obj
 0002:0000ab64       $unwind$??$ensure_buffer_is_big_enough@D@formatting_buffer@__crt_stdio_output@@QEAA_N_K@Z 0000000180038b64     libucrt:output.obj
 0002:0000ab64       $unwind$_seh_filter_exe    0000000180038b64     libucrt:exception_filter.obj
 0002:0000ab64       $unwind$?GetHandlerSearchState@__FrameHandler3@@SAHPEA_KPEAU_xDISPATCHER_CONTEXT@@PEBU_s_FuncInfo@@@Z 0000000180038b64     libvcruntime:frame.obj
 0002:0000ab64       $unwind$__acrt_free_locale 0000000180038b64     libucrt:locale_refcounting.obj
 0002:0000ab64       $unwind$?Is_bad_exception_allowed@@YAEPEBU_s_ESTypeList@@@Z 0000000180038b64     libvcruntime:frame.obj
 0002:0000ab78       $unwind$__scrt_fastfail    0000000180038b78     LIBCMT:utility_desktop.obj
 0002:0000ab88       $unwind$__acrt_stdio_begin_temporary_buffering_nolock 0000000180038b88     libucrt:_sftbuf.obj
 0002:0000ab88       $unwind$_RTC_Terminate     0000000180038b88     LIBCMT:_initsect_.obj
 0002:0000ab88       $unwind$??_Gbad_exception@std@@UEAAPEAXI@Z 0000000180038b88     libvcruntime:frame.obj
 0002:0000ab88       $unwind$?DloadGetSRWLockFunctionPointers@@YAEXZ 0000000180038b88     DelayImp:delayhlp.obj
 0002:0000ab88       $unwind$_FindAndUnlinkFrame 0000000180038b88     libvcruntime:risctrnsctrl.obj
 0002:0000ab88       $unwind$?force_decimal_point@__crt_stdio_output@@YAXPEADQEAU__crt_locale_pointers@@@Z 0000000180038b88     libucrt:output.obj
 0002:0000ab88       $unwind$??_Gbad_array_new_length@std@@UEAAPEAXI@Z 0000000180038b88     LIBCMT:throw_bad_alloc.obj
 0002:0000ab88       $unwind$__acrt_uninitialize_lowio 0000000180038b88     libucrt:ioinit.obj
 0002:0000ab88       $unwind$__acrt_FlsSetValue 0000000180038b88     libucrt:winapi_thunks.obj
 0002:0000ab88       $unwind$??_Gbad_alloc@std@@UEAAPEAXI@Z 0000000180038b88     LIBCMT:throw_bad_alloc.obj
 0002:0000ab88       $unwind$__acrt_fp_strflt_to_string 0000000180038b88     libucrt:_fptostr.obj
 0002:0000ab88       $unwind$__acrt_getptd      0000000180038b88     libucrt:per_thread_data.obj
 0002:0000ab88       $unwind$strncpy_s          0000000180038b88     libucrt:strncpy_s.obj
 0002:0000ab88       $unwind$_RTC_Initialize    0000000180038b88     LIBCMT:_initsect_.obj
 0002:0000ab88       $unwind$_updatetlocinfoEx_nolock 0000000180038b88     libucrt:locale_refcounting.obj
 0002:0000ab88       $unwind$__acrt_execute_uninitializers 0000000180038b88     libucrt:shared_initialization.obj
 0002:0000ab88       $unwind$_realloc_base      0000000180038b88     libucrt:realloc_base.obj
 0002:0000ab88       $unwind$_fclose_nolock     0000000180038b88     libucrt:fclose.obj
 0002:0000ab88       $unwind$__acrt_stdio_allocate_buffer_nolock 0000000180038b88     libucrt:_getbuf.obj
 0002:0000ab88       $unwind$__acrt_getptd_noexit 0000000180038b88     libucrt:per_thread_data.obj
 0002:0000ab88       $unwind$__acrt_LocaleNameToLCID 0000000180038b88     libucrt:winapi_thunks.obj
 0002:0000ab88       $unwind$__acrt_can_show_message_box 0000000180038b88     libucrt:winapi_thunks.obj
 0002:0000ab88       $unwind$??_Gexception@std@@UEAAPEAXI@Z 0000000180038b88     LIBCMT:throw_bad_alloc.obj
 0002:0000ab88       $unwind$?type_case_c_tchar@?$output_processor@DV?$stream_output_adapter@D@__crt_stdio_output@@V?$standard_base@DV?$stream_output_adapter@D@__crt_stdio_output@@@2@@__crt_stdio_output@@AEAA_ND@Z 0000000180038b88     libucrt:output.obj
 0002:0000ab88       $unwind$?replace_current_thread_locale_nolock@@YAXQEAU__acrt_ptd@@QEAU__crt_locale_data@@@Z 0000000180038b88     libucrt:per_thread_data.obj
 0002:0000ab88       $unwind$_close_nolock      0000000180038b88     libucrt:close.obj
 0002:0000ab88       $unwind$__acrt_errno_map_os_error 0000000180038b88     libucrt:errno.obj
 0002:0000ab88       $unwind$__vcrt_FlsSetValue 0000000180038b88     libvcruntime:winapi_downlevel.obj
 0002:0000ab88       $unwind$_initterm_e        0000000180038b88     libucrt:initterm.obj
 0002:0000ab88       $unwind$?SetUnwindTryBlock@__FrameHandler3@@SAXPEA_KPEAU_xDISPATCHER_CONTEXT@@PEBU_s_FuncInfo@@H@Z 0000000180038b88     libvcruntime:ehstate.obj
 0002:0000ab88       $unwind$??$common_initialize_environment_nolock@D@@YAHXZ 0000000180038b88     libucrt:environment_initialization.obj
 0002:0000ab88       $unwind$wcsncat_s          0000000180038b88     libucrt:wcsncat_s.obj
 0002:0000ab88       $unwind$?state_case_normal_tchar@?$output_processor@DV?$stream_output_adapter@D@__crt_stdio_output@@V?$standard_base@DV?$stream_output_adapter@D@__crt_stdio_output@@@2@@__crt_stdio_output@@AEAA_ND@Z 0000000180038b88     libucrt:output.obj
 0002:0000ab94       $unwind$__isa_available_init 0000000180038b94     LIBCMT:_cpu_disp_.obj
 0002:0000aba8       $xdatasym                  0000000180038ba8     LIBCMT:_guard_dispatch_.obj
 0002:0000abac       $unwind$__C_specific_handler 0000000180038bac     libvcruntime:_riscchandler_.obj
 0002:0000abc8       $xdatasym                  0000000180038bc8     libvcruntime:memset.obj
 0002:0000abd8       $unwind$__std_exception_copy 0000000180038bd8     libvcruntime:std_exception.obj
 0002:0000abd8       $unwind$_free_osfhnd       0000000180038bd8     libucrt:osfinfo.obj
 0002:0000abd8       $unwind$?initialize_stdio_handles_nolock@@YAXXZ 0000000180038bd8     libucrt:ioinit.obj
 0002:0000abec       $unwind$_CxxThrowException 0000000180038bec     libvcruntime:throw.obj
 0002:0000ac00       $xdatasym                  0000000180038c00     libvcruntime:_notify_.obj
 0002:0000ac0c       $unwind$__DestructExceptionObject 0000000180038c0c     libvcruntime:ehhelpers.obj
 0002:0000ac2c       $unwind$__acrt_initialize_winapi_thunks 0000000180038c2c     libucrt:winapi_thunks.obj
 0002:0000ac2c       $unwind$__vcrt_initialize_winapi_thunks 0000000180038c2c     libvcruntime:winapi_downlevel.obj
 0002:0000ac34       $unwind$__vcrt_uninitialize_winapi_thunks 0000000180038c34     libvcruntime:winapi_downlevel.obj
 0002:0000ac34       $unwind$__acrt_stdio_end_temporary_buffering_nolock 0000000180038c34     libucrt:_sftbuf.obj
 0002:0000ac3c       $unwind$?IsInExceptionSpec@@YAEPEAUEHExceptionRecord@@PEBU_s_ESTypeList@@@Z 0000000180038c3c     libvcruntime:frame.obj
 0002:0000ac3c       $unwind$??R<lambda_f03950bc5685219e0bcd2087efbe011e>@@QEBAHXZ 0000000180038c3c     libucrt:onexit.obj
 0002:0000ac3c       $unwind$?try_get_function@@YAPEAXW4function_id@?A0x391cf84c@@QEBDQEBW4module_id@2@2@Z 0000000180038c3c     libucrt:winapi_thunks.obj
 0002:0000ac3c       $unwind$?try_get_function@@YAPEAXW4function_id@?A0xcc2f1bd3@@QEBDQEBW4module_id@2@2@Z 0000000180038c3c     libvcruntime:winapi_downlevel.obj
 0002:0000ac58       $unwind$?GetEstablisherFrame@__FrameHandler3@@SAPEA_KPEA_KPEAU_xDISPATCHER_CONTEXT@@PEBU_s_FuncInfo@@0@Z 0000000180038c58     libvcruntime:risctrnsctrl.obj
 0002:0000ac70       $unwind$?UnwindNestedFrames@__FrameHandler3@@SAXPEA_KPEAUEHExceptionRecord@@PEAU_CONTEXT@@0PEAXPEBU_s_FuncInfo@@HHPEBU_s_HandlerType@@PEAU_xDISPATCHER_CONTEXT@@E@Z 0000000180038c70     libvcruntime:risctrnsctrl.obj
 0002:0000ac84       $unwind$?GetRangeOfTrysToCheck@__FrameHandler3@@SA?AU?$pair@Viterator@TryBlockMap@__FrameHandler3@@V123@@std@@AEAVTryBlockMap@1@HH@Z 0000000180038c84     libvcruntime:risctrnsctrl.obj
 0002:0000ac9c       $unwind$__CxxFrameHandler3 0000000180038c9c     libvcruntime:risctrnsctrl.obj
 0002:0000acac       $unwind$??$_CallSETranslator@V__FrameHandler3@@@@YAHPEAUEHExceptionRecord@@PEA_KPEAU_CONTEXT@@PEAU_xDISPATCHER_CONTEXT@@PEBU_s_FuncInfo@@K1@Z 0000000180038cac     libvcruntime:risctrnsctrl.obj
 0002:0000accc       $unwind$?filt$0@?0???$_CallSETranslator@V__FrameHandler3@@@@YAHPEAUEHExceptionRecord@@PEA_KPEAU_CONTEXT@@PEAU_xDISPATCHER_CONTEXT@@PEBU_s_FuncInfo@@K1@Z@4HA 0000000180038ccc     libvcruntime:risctrnsctrl.obj
 0002:0000acd8       $xdatasym                  0000000180038cd8     libvcruntime:memcpy.obj
 0002:0000ace8       $unwind$?FrameUnwindToState@__FrameHandler3@@SAXPEA_KPEAU_xDISPATCHER_CONTEXT@@PEBU_s_FuncInfo@@H@Z 0000000180038ce8     libvcruntime:frame.obj
 0002:0000ad34       $unwind$?CxxCallCatchBlock@__FrameHandler3@@SAPEAXPEAU_EXCEPTION_RECORD@@@Z 0000000180038d34     libvcruntime:frame.obj
 0002:0000ad70       $unwind$?fin$1@?0??CxxCallCatchBlock@__FrameHandler3@@SAPEAXPEAU_EXCEPTION_RECORD@@@Z@4HA 0000000180038d70     libvcruntime:frame.obj
 0002:0000ad7c       $unwind$??$__InternalCxxFrameHandler@V__FrameHandler3@@@@YA?AW4_EXCEPTION_DISPOSITION@@PEAUEHExceptionRecord@@PEA_KPEAU_CONTEXT@@PEAU_xDISPATCHER_CONTEXT@@PEBU_s_FuncInfo@@H1E@Z 0000000180038d7c     libvcruntime:frame.obj
 0002:0000ad94       $unwind$__acrt_initialize_stdio 0000000180038d94     libucrt:_file.obj
 0002:0000ad94       $unwind$__GSHandlerCheck_EH 0000000180038d94     LIBCMT:gshandlereh.obj
 0002:0000ad94       $unwind$??$TypeMatchHelper@$$CBU_s_HandlerType@@@@YAHPEBU_s_HandlerType@@PEBU_s_CatchableType@@PEBU_s_ThrowInfo@@@Z 0000000180038d94     libvcruntime:frame.obj
 0002:0000adac       $unwind$??$BuildCatchObjectHelperInternal@$$CBU_s_HandlerType@@@@YAHPEAUEHExceptionRecord@@PEAXPEBU_s_HandlerType@@PEBU_s_CatchableType@@@Z 0000000180038dac     libvcruntime:frame.obj
 0002:0000adec       $unwind$??$BuildCatchObjectInternal@$$CBU_s_HandlerType@@@@YAXPEAUEHExceptionRecord@@PEAXPEBU_s_HandlerType@@PEBU_s_CatchableType@@@Z 0000000180038dec     libvcruntime:frame.obj
 0002:0000ae18       $unwind$??$FindHandler@V__FrameHandler3@@@@YAXPEAUEHExceptionRecord@@PEA_KPEAU_CONTEXT@@PEAU_xDISPATCHER_CONTEXT@@PEBU_s_FuncInfo@@EH1@Z 0000000180038e18     libvcruntime:frame.obj
 0002:0000ae34       $unwind$??$CatchIt@V__FrameHandler3@@@@YAXPEAUEHExceptionRecord@@PEA_KPEAU_CONTEXT@@PEAU_xDISPATCHER_CONTEXT@@PEBU_s_FuncInfo@@PEBU_s_HandlerType@@PEBU_s_CatchableType@@PEBU_s_TryBlockMapEntry@@H1EE@Z 0000000180038e34     libvcruntime:frame.obj
 0002:0000ae4c       $unwind$??$FindHandlerForForeignException@V__FrameHandler3@@@@YAXPEAUEHExceptionRecord@@PEA_KPEAU_CONTEXT@@PEAU_xDISPATCHER_CONTEXT@@PEBU_s_FuncInfo@@HH1@Z 0000000180038e4c     libvcruntime:frame.obj
 0002:0000ae68       $xdatasym                  0000000180038e68     libvcruntime:handlers.obj
 0002:0000ae78       $unwind$swprintf           0000000180038e78     libucrt:assert.obj
 0002:0000ae88       $unwind$??$common_assert_to_stderr@_W@@YAXQEB_W0I@Z 0000000180038e88     libucrt:assert.obj
 0002:0000aea4       $unwind$??$common_assert_to_message_box@_W@@YAXQEB_W0IQEAX@Z 0000000180038ea4     libucrt:assert.obj
 0002:0000aec0       $unwind$??$common_assert_to_message_box_build_string@_W@@YAXQEA_W_KQEB_W2IQEAX@Z 0000000180038ec0     libucrt:assert.obj
 0002:0000aee0       $unwind$__stdio_common_vfwprintf 0000000180038ee0     libucrt:output.obj
 0002:0000aee0       $unwind$__stdio_common_vfprintf 0000000180038ee0     libucrt:output.obj
 0002:0000aee8       $unwind$??$common_vsprintf@Vstandard_base@__crt_stdio_output@@_W@@YAH_KQEA_W0QEB_WQEAU__crt_locale_pointers@@QEAD@Z 0000000180038ee8     libucrt:output.obj
 0002:0000af08       $unwind$?write_string_impl@?$output_adapter_common@DV?$stream_output_adapter@D@__crt_stdio_output@@@__crt_stdio_output@@IEBAXQEBDHQEAHAEAV__crt_deferred_errno_cache@@@Z 0000000180038f08     libucrt:output.obj
 0002:0000af08       $unwind$??$parse_command_line@D@@YAXPEADPEAPEAD0PEA_K2@Z 0000000180038f08     libucrt:argv_parsing.obj
 0002:0000af08       $unwind$?write_string_impl@?$output_adapter_common@_WV?$stream_output_adapter@_W@__crt_stdio_output@@@__crt_stdio_output@@IEBAXQEB_WHQEAHAEAV__crt_deferred_errno_cache@@@Z 0000000180038f08     libucrt:output.obj
 0002:0000af24       $unwind$?process@?$output_processor@DV?$stream_output_adapter@D@__crt_stdio_output@@V?$standard_base@DV?$stream_output_adapter@D@__crt_stdio_output@@@2@@__crt_stdio_output@@QEAAHXZ 0000000180038f24     libucrt:output.obj
 0002:0000af34       $unwind$?parse_int_from_format_string@?$output_processor@DV?$stream_output_adapter@D@__crt_stdio_output@@V?$standard_base@DV?$stream_output_adapter@D@__crt_stdio_output@@@2@@__crt_stdio_output@@AEAA_NQEAH@Z 0000000180038f34     libucrt:output.obj
 0002:0000af34       $unwind$?process@?$output_processor@_WV?$stream_output_adapter@_W@__crt_stdio_output@@V?$standard_base@_WV?$stream_output_adapter@_W@__crt_stdio_output@@@2@@__crt_stdio_output@@QEAAHXZ 0000000180038f34     libucrt:output.obj
 0002:0000af34       $unwind$?process@?$output_processor@_WV?$string_output_adapter@_W@__crt_stdio_output@@V?$standard_base@_WV?$string_output_adapter@_W@__crt_stdio_output@@@2@@__crt_stdio_output@@QEAAHXZ 0000000180038f34     libucrt:output.obj
 0002:0000af48       $unwind$?state_case_type@?$output_processor@DV?$stream_output_adapter@D@__crt_stdio_output@@V?$standard_base@DV?$stream_output_adapter@D@__crt_stdio_output@@@2@@__crt_stdio_output@@AEAA_NXZ 0000000180038f48     libucrt:output.obj
 0002:0000af60       $unwind$?type_case_a@?$output_processor@DV?$stream_output_adapter@D@__crt_stdio_output@@V?$standard_base@DV?$stream_output_adapter@D@__crt_stdio_output@@@2@@__crt_stdio_output@@AEAA_NXZ 0000000180038f60     libucrt:output.obj
 0002:0000af6c       $unwind$?type_case_integer@?$output_processor@_WV?$stream_output_adapter@_W@__crt_stdio_output@@V?$standard_base@_WV?$stream_output_adapter@_W@__crt_stdio_output@@@2@@__crt_stdio_output@@AEAA_NI_N@Z 0000000180038f6c     libucrt:output.obj
 0002:0000af6c       $unwind$?type_case_integer@?$output_processor@DV?$stream_output_adapter@D@__crt_stdio_output@@V?$standard_base@DV?$stream_output_adapter@D@__crt_stdio_output@@@2@@__crt_stdio_output@@AEAA_NI_N@Z 0000000180038f6c     libucrt:output.obj
 0002:0000af6c       $unwind$?type_case_integer@?$output_processor@_WV?$string_output_adapter@_W@__crt_stdio_output@@V?$standard_base@_WV?$string_output_adapter@_W@__crt_stdio_output@@@2@@__crt_stdio_output@@AEAA_NI_N@Z 0000000180038f6c     libucrt:output.obj
 0002:0000af84       $unwind$?write_stored_string_tchar@?$output_processor@DV?$stream_output_adapter@D@__crt_stdio_output@@V?$standard_base@DV?$stream_output_adapter@D@__crt_stdio_output@@@2@@__crt_stdio_output@@AEAA_ND@Z 0000000180038f84     libucrt:output.obj
 0002:0000af9c       $unwind$??R<lambda_a775ed57af18ba8e4d5dc780aa9068fe>@@QEBAHXZ 0000000180038f9c     libucrt:output.obj
 0002:0000af9c       $unwind$??R<lambda_a31071773b9a94e445cbd5d04ef99106>@@QEBAHXZ 0000000180038f9c     libucrt:output.obj
 0002:0000afbc       $unwind$?parse_int_from_format_string@?$output_processor@_WV?$stream_output_adapter@_W@__crt_stdio_output@@V?$standard_base@_WV?$stream_output_adapter@_W@__crt_stdio_output@@@2@@__crt_stdio_output@@AEAA_NQEAH@Z 0000000180038fbc     libucrt:output.obj
 0002:0000afbc       $unwind$?parse_int_from_format_string@?$output_processor@_WV?$string_output_adapter@_W@__crt_stdio_output@@V?$standard_base@_WV?$string_output_adapter@_W@__crt_stdio_output@@@2@@__crt_stdio_output@@AEAA_NQEAH@Z 0000000180038fbc     libucrt:output.obj
 0002:0000afd0       $unwind$?state_case_type@?$output_processor@_WV?$stream_output_adapter@_W@__crt_stdio_output@@V?$standard_base@_WV?$stream_output_adapter@_W@__crt_stdio_output@@@2@@__crt_stdio_output@@AEAA_NXZ 0000000180038fd0     libucrt:output.obj
 0002:0000aff0       $unwind$??R<lambda_ca71763b3c0644891230e4f79ea54fa6>@@QEBAHXZ 0000000180038ff0     libucrt:setvbuf.obj
 0002:0000aff0       $unwind$?type_case_c_tchar@?$output_processor@_WV?$stream_output_adapter@_W@__crt_stdio_output@@V?$standard_base@_WV?$stream_output_adapter@_W@__crt_stdio_output@@@2@@__crt_stdio_output@@AEAA_N_W@Z 0000000180038ff0     libucrt:output.obj
 0002:0000aff0       $unwind$?type_case_c_tchar@?$output_processor@_WV?$string_output_adapter@_W@__crt_stdio_output@@V?$standard_base@_WV?$string_output_adapter@_W@__crt_stdio_output@@@2@@__crt_stdio_output@@AEAA_N_W@Z 0000000180038ff0     libucrt:output.obj
 0002:0000b000       $unwind$?type_case_a@?$output_processor@_WV?$string_output_adapter@_W@__crt_stdio_output@@V?$standard_base@_WV?$string_output_adapter@_W@__crt_stdio_output@@@2@@__crt_stdio_output@@AEAA_NXZ 0000000180039000     libucrt:output.obj
 0002:0000b000       $unwind$?type_case_a@?$output_processor@_WV?$stream_output_adapter@_W@__crt_stdio_output@@V?$standard_base@_WV?$stream_output_adapter@_W@__crt_stdio_output@@@2@@__crt_stdio_output@@AEAA_NXZ 0000000180039000     libucrt:output.obj
 0002:0000b010       $unwind$?write_stored_string_tchar@?$output_processor@_WV?$stream_output_adapter@_W@__crt_stdio_output@@V?$standard_base@_WV?$stream_output_adapter@_W@__crt_stdio_output@@@2@@__crt_stdio_output@@AEAA_N_W@Z 0000000180039010     libucrt:output.obj
 0002:0000b024       $unwind$?write_string@?$string_output_adapter@_W@__crt_stdio_output@@QEBAXQEB_WHQEAHAEAV__crt_deferred_errno_cache@@@Z 0000000180039024     libucrt:output.obj
 0002:0000b03c       $unwind$?state_case_type@?$output_processor@_WV?$string_output_adapter@_W@__crt_stdio_output@@V?$standard_base@_WV?$string_output_adapter@_W@__crt_stdio_output@@@2@@__crt_stdio_output@@AEAA_NXZ 000000018003903c     libucrt:output.obj
 0002:0000b060       $unwind$?write_stored_string_tchar@?$output_processor@_WV?$string_output_adapter@_W@__crt_stdio_output@@V?$standard_base@_WV?$string_output_adapter@_W@__crt_stdio_output@@@2@@__crt_stdio_output@@AEAA_N_W@Z 0000000180039060     libucrt:output.obj
 0002:0000b074       $unwind$??$write_multiple_characters@V?$string_output_adapter@_W@__crt_stdio_output@@D@__crt_stdio_output@@YAXAEBV?$string_output_adapter@_W@0@DHQEAH@Z 0000000180039074     libucrt:output.obj
 0002:0000b080       $unwind$??$write_multiple_characters@V?$stream_output_adapter@D@__crt_stdio_output@@D@__crt_stdio_output@@YAXAEBV?$stream_output_adapter@D@0@DHQEAH@Z 0000000180039080     libucrt:output.obj
 0002:0000b080       $unwind$??$write_multiple_characters@V?$stream_output_adapter@_W@__crt_stdio_output@@D@__crt_stdio_output@@YAXAEBV?$stream_output_adapter@_W@0@DHQEAH@Z 0000000180039080     libucrt:output.obj
 0002:0000b098       $unwind$??$?RV<lambda_a62c933ada0517137acf5807a1eeac1f>@@AEAV<lambda_a31071773b9a94e445cbd5d04ef99106>@@V<lambda_56065050dbf3ada7e59a83db45153de3>@@@?$__crt_seh_guarded_call@H@@QEAAH$$QEAV<lambda_a62c933ada0517137acf5807a1eeac1f>@@AEAV<lambda_a31071773b9a94e445cbd5d04ef99106>@@$$QEAV<lambda_56065050dbf3ada7e59a83db45153de3>@@@Z 0000000180039098     libucrt:output.obj
 0002:0000b0bc       $unwind$??$?RV<lambda_0d412022a4b28cc8a401ea49574e8ae6>@@AEAV<lambda_a775ed57af18ba8e4d5dc780aa9068fe>@@V<lambda_975a71a6baa488a08f4e15f6b0339b9e>@@@?$__crt_seh_guarded_call@H@@QEAAH$$QEAV<lambda_0d412022a4b28cc8a401ea49574e8ae6>@@AEAV<lambda_a775ed57af18ba8e4d5dc780aa9068fe>@@$$QEAV<lambda_975a71a6baa488a08f4e15f6b0339b9e>@@@Z 00000001800390bc     libucrt:output.obj
 0002:0000b0e0       $unwind$_stricmp_l         00000001800390e0     libucrt:stricmp.obj
 0002:0000b0e0       $unwind$?x_ismbbtype_l@@YAHPEAU__crt_locale_pointers@@IHH@Z 00000001800390e0     libucrt:ismbbyte.obj
 0002:0000b0f0       $unwind$_query_new_handler 00000001800390f0     libucrt:new_handler.obj
 0002:0000b110       $unwind$?common_exit@@YAXHW4_crt_exit_cleanup_mode@@W4_crt_exit_return_mode@@@Z 0000000180039110     libucrt:exit.obj
 0002:0000b11c       $unwind$??R<lambda_6e4b09c48022b2350581041d5f6b0c4c>@@QEBA@XZ 000000018003911c     libucrt:exit.obj
 0002:0000b13c       $unwind$??$?RV<lambda_d80eeec6fff315bfe5c115232f3240e3>@@AEAV<lambda_6e4b09c48022b2350581041d5f6b0c4c>@@V<lambda_2358e3775559c9db80273638284d5e45>@@@?$__crt_seh_guarded_call@X@@QEAAX$$QEAV<lambda_d80eeec6fff315bfe5c115232f3240e3>@@AEAV<lambda_6e4b09c48022b2350581041d5f6b0c4c>@@$$QEAV<lambda_2358e3775559c9db80273638284d5e45>@@@Z 000000018003913c     libucrt:exit.obj
 0002:0000b160       $unwind$_configure_narrow_argv 0000000180039160     libucrt:argv_parsing.obj
 0002:0000b174       $unwind$??$free_environment@_W@@YAXQEAPEA_W@Z 0000000180039174     libucrt:environment_initialization.obj
 0002:0000b174       $unwind$??$free_environment@D@@YAXQEAPEAD@Z 0000000180039174     libucrt:environment_initialization.obj
 0002:0000b180       $unwind$??$create_environment@D@@YAQEAPEADQEAD@Z 0000000180039180     libucrt:environment_initialization.obj
 0002:0000b198       $unwind$_execute_onexit_table 0000000180039198     libucrt:onexit.obj
 0002:0000b1a0       $unwind$??$?RV<lambda_7777bce6b2f8c936911f934f8298dc43>@@AEAV<lambda_f03950bc5685219e0bcd2087efbe011e>@@V<lambda_3883c3dff614d5e0c5f61bb1ac94921c>@@@?$__crt_seh_guarded_call@H@@QEAAH$$QEAV<lambda_7777bce6b2f8c936911f934f8298dc43>@@AEAV<lambda_f03950bc5685219e0bcd2087efbe011e>@@$$QEAV<lambda_3883c3dff614d5e0c5f61bb1ac94921c>@@@Z 00000001800391a0     libucrt:onexit.obj
 0002:0000b1c4       $unwind$terminate          00000001800391c4     libucrt:terminate.obj
 0002:0000b1e4       $unwind$??$parse_integer@KV?$c_string_character_source@D@__crt_strtox@@@__crt_strtox@@YAKQEAU__crt_locale_pointers@@V?$c_string_character_source@D@0@H_N@Z 00000001800391e4     libucrt:atox.obj
 0002:0000b1fc       $unwind$??$parse_integer@KV?$c_string_character_source@_W@__crt_strtox@@@__crt_strtox@@YAKQEAU__crt_locale_pointers@@V?$c_string_character_source@_W@0@H_N@Z 00000001800391fc     libucrt:atox.obj
 0002:0000b218       $xdatasym                  0000000180039218     libucrt:strncmp.obj
 0002:0000b21c       $unwind$fflush             000000018003921c     libucrt:fflush.obj
 0002:0000b21c       $unwind$wctomb_s           000000018003921c     libucrt:wctomb.obj
 0002:0000b21c       $unwind$_itow_s            000000018003921c     libucrt:xtoa.obj
 0002:0000b21c       $unwind$strtol             000000018003921c     libucrt:strtox.obj
 0002:0000b21c       $unwind$_invalid_parameter_noinfo 000000018003921c     libucrt:invalid_parameter.obj
 0002:0000b21c       $unwind$_log10_special     000000018003921c     libucrt:log_special.obj
 0002:0000b21c       $unwind$wcstol             000000018003921c     libucrt:strtox.obj
 0002:0000b224       $unwind$__acrt_call_reportfault 0000000180039224     libucrt:invalid_parameter.obj
 0002:0000b244       $unwind$??$__acrt_convert_wcs_mbs@_WD$$A6A_KPEADPEB_W_KPEAU__crt_locale_pointers@@@ZU__crt_win32_buffer_no_resizing@@@@YAHQEB_WAEAV?$__crt_win32_buffer@DU__crt_win32_buffer_no_resizing@@@@A6A_KPEADPEB_W_KPEAU__crt_locale_pointers@@@Z5@Z 0000000180039244     libucrt:findnextfilea.obj
 0002:0000b244       $unwind$__acrt_MessageBoxW 0000000180039244     libucrt:winapi_thunks.obj
 0002:0000b244       $unwind$_invalid_parameter 0000000180039244     libucrt:invalid_parameter.obj
 0002:0000b258       $unwind$?__mbrtowc_utf8@__crt_mbstring@@YA_KPEA_WPEBD_KPEAU_Mbstatet@@@Z 0000000180039258     libucrt:mbrtowc.obj
 0002:0000b258       $unwind$??$common_xtox_s@K_W@@YAHKQEA_W_KI_N@Z 0000000180039258     libucrt:xtoa.obj
 0002:0000b260       $unwind$__acrt_GetModuleFileNameA 0000000180039260     libucrt:getmodulefilenamea.obj
 0002:0000b278       $unwind$?common_flush_all@@YAH_N@Z 0000000180039278     libucrt:fflush.obj
 0002:0000b280       $unwind$??$?RV<lambda_842d9ff0dc9ef11c61343bbaebe7f885>@@AEAV<lambda_c5860995281e5c4ce005b3de8f5874ee>@@V<lambda_d90129c13df834fdcbf8d2b88dafcf2d>@@@?$__crt_seh_guarded_call@X@@QEAAX$$QEAV<lambda_842d9ff0dc9ef11c61343bbaebe7f885>@@AEAV<lambda_c5860995281e5c4ce005b3de8f5874ee>@@$$QEAV<lambda_d90129c13df834fdcbf8d2b88dafcf2d>@@@Z 0000000180039280     libucrt:fflush.obj
 0002:0000b2a4       $unwind$??$?RV<lambda_886d6c58226a84441f68b9f2b8217b83>@@AEAV<lambda_ab61a845afdef5b7c387490eaf3616ee>@@V<lambda_f7f22ab5edc0698d5f6905b0d3f44752>@@@?$__crt_seh_guarded_call@X@@QEAAX$$QEAV<lambda_886d6c58226a84441f68b9f2b8217b83>@@AEAV<lambda_ab61a845afdef5b7c387490eaf3616ee>@@$$QEAV<lambda_f7f22ab5edc0698d5f6905b0d3f44752>@@@Z 00000001800392a4     libucrt:fflush.obj
 0002:0000b2cc       $unwind$??$?RV<lambda_c376a267cfb53b6959b3b692ec76b120>@@AEAV<lambda_9a32fed5bf61b6b509b2d3f6003082a1>@@V<lambda_572fbb9fa0ab338edf41edfd4b5fcc8d>@@@?$__crt_seh_guarded_call@H@@QEAAH$$QEAV<lambda_c376a267cfb53b6959b3b692ec76b120>@@AEAV<lambda_9a32fed5bf61b6b509b2d3f6003082a1>@@$$QEAV<lambda_572fbb9fa0ab338edf41edfd4b5fcc8d>@@@Z 00000001800392cc     libucrt:fflush.obj
 0002:0000b2f0       $unwind$setvbuf            00000001800392f0     libucrt:setvbuf.obj
 0002:0000b2f8       $unwind$??$?RV<lambda_84ec643ea9557e2f7dc01bb0e9624395>@@AEAV<lambda_ca71763b3c0644891230e4f79ea54fa6>@@V<lambda_439a761618c59b0600e24586724d733b>@@@?$__crt_seh_guarded_call@H@@QEAAH$$QEAV<lambda_84ec643ea9557e2f7dc01bb0e9624395>@@AEAV<lambda_ca71763b3c0644891230e4f79ea54fa6>@@$$QEAV<lambda_439a761618c59b0600e24586724d733b>@@@Z 00000001800392f8     libucrt:setvbuf.obj
 0002:0000b31c       $unwind$__acrt_uninitialize_locale 000000018003931c     libucrt:wsetlocale.obj
 0002:0000b31c       $unwind$__acrt_get_sigabrt_handler 000000018003931c     libucrt:signal.obj
 0002:0000b324       $unwind$raise              0000000180039324     libucrt:signal.obj
 0002:0000b360       $unwind$??$?RV<lambda_450d765d439847d4c735a33c368b5fc0>@@AEAV<lambda_44731a7d0e6d81c3e6aa82d741081786>@@V<lambda_601a2a7da3b7a96e9554ac7215c4b07c>@@@?$__crt_seh_guarded_call@P6AXH@Z@@QEAAP6AXH@Z$$QEAV<lambda_450d765d439847d4c735a33c368b5fc0>@@AEAV<lambda_44731a7d0e6d81c3e6aa82d741081786>@@$$QEAV<lambda_601a2a7da3b7a96e9554ac7215c4b07c>@@@Z 0000000180039360     libucrt:signal.obj
 0002:0000b384       $unwind$?destroy_fls@@YAXPEAX@Z 0000000180039384     libucrt:per_thread_data.obj
 0002:0000b384       $unwind$_free_base         0000000180039384     libucrt:free_base.obj
 0002:0000b384       $unwind$__acrt_locale_free_lc_time_if_unreferenced 0000000180039384     libucrt:locale_refcounting.obj
 0002:0000b384       $unwind$__acrt_locale_free_numeric 0000000180039384     libucrt:initnum.obj
 0002:0000b38c       $unwind$__acrt_LCMapStringEx 000000018003938c     libucrt:winapi_thunks.obj
 0002:0000b38c       $unwind$_mbtowc_l          000000018003938c     libucrt:mbtowc.obj
 0002:0000b38c       $unwind$?fp_format_e@@YAHQEBNQEAD_K12H_NIQEAU__crt_locale_pointers@@@Z 000000018003938c     libucrt:cvt.obj
 0002:0000b3a0       $unwind$__acrt_is_interactive 00000001800393a0     libucrt:winapi_thunks.obj
 0002:0000b3b4       $unwind$_fcloseall         00000001800393b4     libucrt:closeall.obj
 0002:0000b3d8       $unwind$__acrt_initialize_lowio 00000001800393d8     libucrt:ioinit.obj
 0002:0000b3f8       $unwind$?initialize_inherited_file_handles_nolock@@YAXXZ 00000001800393f8     libucrt:ioinit.obj
 0002:0000b414       $unwind$_tolower_l         0000000180039414     libucrt:tolower_toupper.obj
 0002:0000b424       $unwind$_wctomb_s_l        0000000180039424     libucrt:wctomb.obj
 0002:0000b434       $unwind$?construct_ptd_array@@YAXQEAU__acrt_ptd@@@Z 0000000180039434     libucrt:per_thread_data.obj
 0002:0000b43c       $unwind$?destroy_ptd_array@@YAXQEAU__acrt_ptd@@@Z 000000018003943c     libucrt:per_thread_data.obj
 0002:0000b444       $unwind$??$?RV<lambda_0ae27a3a962d80f24befdcbee591983d>@@AEAV<lambda_8d0ee55de4b1038c4002e0adecdf1839>@@V<lambda_dc504788e8f1664fe9b84e20bfb512f2>@@@?$__crt_seh_guarded_call@X@@QEAAX$$QEAV<lambda_0ae27a3a962d80f24befdcbee591983d>@@AEAV<lambda_8d0ee55de4b1038c4002e0adecdf1839>@@$$QEAV<lambda_dc504788e8f1664fe9b84e20bfb512f2>@@@Z 0000000180039444     libucrt:per_thread_data.obj
 0002:0000b468       $unwind$??$?RV<lambda_aa87e3671a710a21b5dc78c0bdf72e11>@@AEAV<lambda_92619d2358a28f41a33ba319515a20b9>@@V<lambda_6992ecaafeb10aed2b74cb1fae11a551>@@@?$__crt_seh_guarded_call@X@@QEAAX$$QEAV<lambda_aa87e3671a710a21b5dc78c0bdf72e11>@@AEAV<lambda_92619d2358a28f41a33ba319515a20b9>@@$$QEAV<lambda_6992ecaafeb10aed2b74cb1fae11a551>@@@Z 0000000180039468     libucrt:per_thread_data.obj
 0002:0000b48c       $unwind$??$?RV<lambda_f2e299630e499de9f9a165e60fcd3db5>@@AEAV<lambda_2ae9d31cdba2644fcbeaf08da7c24588>@@V<lambda_40d01ff24d0e7b3814fdbdcee8eab3c7>@@@?$__crt_seh_guarded_call@X@@QEAAX$$QEAV<lambda_f2e299630e499de9f9a165e60fcd3db5>@@AEAV<lambda_2ae9d31cdba2644fcbeaf08da7c24588>@@$$QEAV<lambda_40d01ff24d0e7b3814fdbdcee8eab3c7>@@@Z 000000018003948c     libucrt:per_thread_data.obj
 0002:0000b4b0       $unwind$??$?RV<lambda_2d41944a1d46af3157314b8a01080d33>@@AEAV<lambda_8f455de75cd7d7f24b4096f044d8b9e6>@@V<lambda_aa500f224e6afead328df44964fe2772>@@@?$__crt_seh_guarded_call@X@@QEAAX$$QEAV<lambda_2d41944a1d46af3157314b8a01080d33>@@AEAV<lambda_8f455de75cd7d7f24b4096f044d8b9e6>@@$$QEAV<lambda_aa500f224e6afead328df44964fe2772>@@@Z 00000001800394b0     libucrt:per_thread_data.obj
 0002:0000b4d4       $unwind$__acrt_fp_format   00000001800394d4     libucrt:cvt.obj
 0002:0000b4e8       $unwind$?fp_format_nan_or_infinity@@YAHW4__acrt_fp_class@@_NPEAD_K1@Z 00000001800394e8     libucrt:cvt.obj
 0002:0000b4fc       $unwind$?fp_format_e_internal@@YAHQEAD_KH_NIQEAU_strflt@@2QEAU__crt_locale_pointers@@@Z 00000001800394fc     libucrt:cvt.obj
 0002:0000b514       $unwind$?fp_format_a@@YAHQEBNPEAD_KQEAD2H_NIQEAU__crt_locale_pointers@@@Z 0000000180039514     libucrt:cvt.obj
 0002:0000b530       $unwind$__dcrt_get_narrow_environment_from_os 0000000180039530     libucrt:get_environment_from_os.obj
 0002:0000b530       $unwind$?fp_format_f_internal@@YAHQEAD_KHQEAU_strflt@@_NQEAU__crt_locale_pointers@@@Z 0000000180039530     libucrt:cvt.obj
 0002:0000b548       $unwind$?fp_format_g@@YAHQEBNQEAD_K12H_NIQEAU__crt_locale_pointers@@@Z 0000000180039548     libucrt:cvt.obj
 0002:0000b55c       $unwind$_fputwc_nolock     000000018003955c     libucrt:fputwc.obj
 0002:0000b578       $unwind$??$?RV<lambda_410d79af7f07d98d83a3f525b3859a53>@@AEAV<lambda_3e16ef9562a7dcce91392c22ab16ea36>@@V<lambda_38119f0e861e05405d8a144b9b982f0a>@@@?$__crt_seh_guarded_call@X@@QEAAX$$QEAV<lambda_410d79af7f07d98d83a3f525b3859a53>@@AEAV<lambda_3e16ef9562a7dcce91392c22ab16ea36>@@$$QEAV<lambda_38119f0e861e05405d8a144b9b982f0a>@@@Z 0000000180039578     libucrt:wsetlocale.obj
 0002:0000b5a0       $unwind$??$common_expand_argv_wildcards@D@@YAHQEAPEADQEAPEAPEAD@Z 00000001800395a0     libucrt:argv_wildcards.obj
 0002:0000b5b8       $unwind$??$copy_and_add_argument_to_buffer@D@@YAHQEBD0_KAEAV?$argument_list@D@?A0x5f5c8891@@@Z 00000001800395b8     libucrt:argv_wildcards.obj
 0002:0000b5d4       $unwind$??$expand_argument_wildcards@D@@YAHQEAD0AEAV?$argument_list@D@?A0x5f5c8891@@@Z 00000001800395d4     libucrt:argv_wildcards.obj
 0002:0000b5f4       $unwind$_setmbcp_nolock    00000001800395f4     libucrt:mbctype.obj
 0002:0000b614       $unwind$?update_thread_multibyte_data_internal@@YAPEAU__crt_multibyte_data@@QEAU__acrt_ptd@@QEAPEAU1@@Z 0000000180039614     libucrt:mbctype.obj
 0002:0000b63c       $unwind$?setmbcp_internal@@YAHH_NQEAU__acrt_ptd@@QEAPEAU__crt_multibyte_data@@@Z 000000018003963c     libucrt:mbctype.obj
 0002:0000b64c       $unwind$?setSBUpLow@@YAXPEAU__crt_multibyte_data@@@Z 000000018003964c     libucrt:mbctype.obj
 0002:0000b668       $unwind$??$?RV<lambda_efdfa57d1f175319df784efa44bb7b81>@@AEAV<lambda_5f0a4c1567f8adc6734073e5d1e1b35c>@@V<lambda_2e8a7d3640ea6ccb4c2413664c2db6fd>@@@?$__crt_seh_guarded_call@X@@QEAAX$$QEAV<lambda_efdfa57d1f175319df784efa44bb7b81>@@AEAV<lambda_5f0a4c1567f8adc6734073e5d1e1b35c>@@$$QEAV<lambda_2e8a7d3640ea6ccb4c2413664c2db6fd>@@@Z 0000000180039668     libucrt:mbctype.obj
 0002:0000b68c       $unwind$__GSHandlerCheckCommon 000000018003968c     LIBCMT:_gshandler_.obj
 0002:0000b68c       $unwind$__acrt_WideCharToMultiByte 000000018003968c     libucrt:widechartomultibyte.obj
 0002:0000b694       $unwind$iswctype           0000000180039694     libucrt:iswctype.obj
 0002:0000b6a0       $unwind$_isctype_l         00000001800396a0     libucrt:isctype.obj
 0002:0000b6b8       $unwind$?_mbstowcs_l_helper@@YA_KPEA_WPEBD_KPEAU__crt_locale_pointers@@@Z 00000001800396b8     libucrt:mbstowcs.obj
 0002:0000b6d0       $unwind$_close             00000001800396d0     libucrt:close.obj
 0002:0000b6d0       $unwind$_commit            00000001800396d0     libucrt:commit.obj
 0002:0000b6d8       $unwind$??$?RV<lambda_a37b2b86f63e897a80ea819b0eb08c01>@@AEAV<lambda_38ce7e780aa69e748d6df282ebc68efe>@@V<lambda_99fb1378e971ab6e7edea83e3a7a83a2>@@@?$__crt_seh_guarded_call@H@@QEAAH$$QEAV<lambda_a37b2b86f63e897a80ea819b0eb08c01>@@AEAV<lambda_38ce7e780aa69e748d6df282ebc68efe>@@$$QEAV<lambda_99fb1378e971ab6e7edea83e3a7a83a2>@@@Z 00000001800396d8     libucrt:commit.obj
 0002:0000b6fc       $unwind$_write             00000001800396fc     libucrt:write.obj
 0002:0000b72c       $unwind$_write_nolock      000000018003972c     libucrt:write.obj
 0002:0000b744       $unwind$?write_double_translated_ansi_nolock@@YA?AUwrite_result@?A0x17268360@@HQEBDI@Z 0000000180039744     libucrt:write.obj
 0002:0000b764       $unwind$?write_text_utf16le_nolock@@YA?AUwrite_result@?A0x17268360@@HQEBDI@Z 0000000180039764     libucrt:write.obj
 0002:0000b764       $unwind$?write_text_ansi_nolock@@YA?AUwrite_result@?A0x17268360@@HQEBDI@Z 0000000180039764     libucrt:write.obj
 0002:0000b784       $unwind$?write_text_utf8_nolock@@YA?AUwrite_result@?A0x17268360@@HQEBDI@Z 0000000180039784     libucrt:write.obj
 0002:0000b7a8       $unwind$?GetTableIndexFromLocaleName@@YAHPEB_W@Z 00000001800397a8     libucrt:lcidtoname_downlevel.obj
 0002:0000b7c0       $unwind$fclose             00000001800397c0     libucrt:fclose.obj
 0002:0000b7e4       $unwind$__acrt_lowio_destroy_handle_array 00000001800397e4     libucrt:osfinfo.obj
 0002:0000b7f4       $unwind$__acrt_lowio_ensure_fh_exists 00000001800397f4     libucrt:osfinfo.obj
 0002:0000b820       $unwind$__acrt_LCMapStringA 0000000180039820     libucrt:lcmapstringa.obj
 0002:0000b830       $unwind$?__acrt_LCMapStringA_stat@@YAHPEAU__crt_locale_pointers@@PEB_WKPEBDHPEADHHH@Z 0000000180039830     libucrt:lcmapstringa.obj
 0002:0000b858       $unwind$?__mbsrtowcs_utf8@__crt_mbstring@@YA_KPEA_WPEAPEBD_KPEAU_Mbstatet@@@Z 0000000180039858     libucrt:mbrtowc.obj
 0002:0000b870       $unwind$__acrt_update_thread_locale_data 0000000180039870     libucrt:locale_refcounting.obj
 0002:0000b894       $unwind$__acrt_fltout      0000000180039894     libucrt:cfout.obj
 0002:0000b8b4       $unwind$?divide@__crt_strtox@@YA_KAEAUbig_integer@1@AEBU21@@Z 00000001800398b4     libucrt:cfout.obj
 0002:0000b8c0       $chain$0$?divide@__crt_strtox@@YA_KAEAUbig_integer@1@AEBU21@@Z 00000001800398c0     libucrt:cfout.obj
 0002:0000b8d4       $chain$6$?divide@__crt_strtox@@YA_KAEAUbig_integer@1@AEBU21@@Z 00000001800398d4     libucrt:cfout.obj
 0002:0000b8f8       $chain$7$?divide@__crt_strtox@@YA_KAEAUbig_integer@1@AEBU21@@Z 00000001800398f8     libucrt:cfout.obj
 0002:0000b90c       $chain$8$?divide@__crt_strtox@@YA_KAEAUbig_integer@1@AEBU21@@Z 000000018003990c     libucrt:cfout.obj
 0002:0000b91c       $unwind$??$write_buffer_nolock@D@@YA_NDV__crt_stdio_stream@@@Z 000000018003991c     libucrt:_flsbuf.obj
 0002:0000b92c       $unwind$??$write_buffer_nolock@_W@@YA_N_WV__crt_stdio_stream@@@Z 000000018003992c     libucrt:_flsbuf.obj
 0002:0000b93c       $unwind$__acrt_locale_free_monetary 000000018003993c     libucrt:initmon.obj
 0002:0000b944       $unwind$__acrt_locale_free_time 0000000180039944     libucrt:inittime.obj
 0002:0000b954       $unwind$__acrt_GetStringTypeA 0000000180039954     libucrt:getstringtypea.obj
 0002:0000b97c       $unwind$qsort              000000018003997c     libucrt:qsort.obj
 0002:0000b994       $chain$4$qsort             0000000180039994     libucrt:qsort.obj
 0002:0000b9b8       $chain$5$qsort             00000001800399b8     libucrt:qsort.obj
 0002:0000b9c8       $unwind$strpbrk            00000001800399c8     libucrt:strpbrk.obj
 0002:0000b9d8       $unwind$fallbackMethod     00000001800399d8     libucrt:strpbrk.obj
 0002:0000b9e8       $unwind$__acrt_FindFirstFileExA 00000001800399e8     libucrt:findfirstfileexa.obj
 0002:0000b9f8       $unwind$??$__acrt_convert_wcs_mbs@D_W$$A6A_KPEA_WPEBD_KPEAU__crt_locale_pointers@@@ZU__crt_win32_buffer_internal_dynamic_resizing@@@@YAHQEBDAEAV?$__crt_win32_buffer@_WU__crt_win32_buffer_internal_dynamic_resizing@@@@A6A_KPEA_WPEBD_KPEAU__crt_locale_pointers@@@Z5@Z 00000001800399f8     libucrt:findfirstfileexa.obj
 0002:0000ba10       $unwind$__acrt_FindNextFileA 0000000180039a10     libucrt:findnextfilea.obj
 0002:0000ba2c       $unwind$_mbsdec_l          0000000180039a2c     libucrt:mbsdec.obj
 0002:0000ba38       $unwind$??$common_lseek@_J@@YA_JH_JH@Z 0000000180039a38     libucrt:lseek.obj
 0002:0000ba68       $unwind$_putwch_nolock     0000000180039a68     libucrt:putwch.obj
 0002:0000ba70       $unwind$??$?RV<lambda_751a882b2c74d4b022dec766aa51a29a>@@AEAV<lambda_628dfdc04ba53c8bfc02c9951375f3f5>@@V<lambda_f6c7be5f7998530c34de24c7437d6b54>@@@?$__crt_seh_guarded_call@H@@QEAAH$$QEAV<lambda_751a882b2c74d4b022dec766aa51a29a>@@AEAV<lambda_628dfdc04ba53c8bfc02c9951375f3f5>@@$$QEAV<lambda_f6c7be5f7998530c34de24c7437d6b54>@@@Z 0000000180039a70     libucrt:close.obj
 0002:0000ba94       $unwind$?__mbrtoc32_utf8@__crt_mbstring@@YA_KPEA_UPEBD_KPEAU_Mbstatet@@@Z 0000000180039a94     libucrt:mbrtoc32.obj
 0002:0000bab0       $xdatasym                  0000000180039ab0     libucrt:log10.obj
 0002:0000babc       $unwind$?_wcstombs_l_helper@@YA_KPEADPEB_W_KPEAU__crt_locale_pointers@@@Z 0000000180039abc     libucrt:wcstombs.obj
 0002:0000bae0       $stateUnwindMap$?_wcstombs_l_helper@@YA_KPEADPEB_W_KPEAU__crt_locale_pointers@@@Z 0000000180039ae0     libucrt:wcstombs.obj
 0002:0000bae8       $ip2state$?_wcstombs_l_helper@@YA_KPEADPEB_W_KPEAU__crt_locale_pointers@@@Z 0000000180039ae8     libucrt:wcstombs.obj
 0002:0000bb00       $unwind$__dcrt_write_console 0000000180039b00     libucrt:initcon.obj
 0002:0000bb14       $unwind$__acrt_fenv_set_control 0000000180039b14     libucrt:_fenvutils.obj
 0002:0000bb24       $unwind$_call_matherr      0000000180039b24     libucrt:libm_error.obj
 0002:0000bb2c       $unwind$_handle_error      0000000180039b2c     libucrt:libm_error.obj
 0002:0000bb4c       $unwind$__acrt_initialize_fma3 0000000180039b4c     libucrt:fma3_available.obj
 0002:0000bb54       $unwind$_log_special_common 0000000180039b54     libucrt:log_special.obj
 0002:0000bb60       $unwind$?__wcsrtombs_utf8@__crt_mbstring@@YA_KPEADPEAPEB_W_KPEAU_Mbstatet@@@Z 0000000180039b60     libucrt:wcrtomb.obj
 0002:0000bb80       $xdatasym                  0000000180039b80     libucrt:fpsr.obj
 0002:0000bb88       $unwind$_raise_exc_ex      0000000180039b88     libucrt:fpexcept.obj
 0002:0000bb9c       $unwind$_ctrlfp            0000000180039b9c     libucrt:fpctrl.obj
 0002:0000bbc4       $unwind$?DloadObtainSection@@YAPEAXPEAK0@Z 0000000180039bc4     DelayImp:delayhlp.obj
 0002:0000bbd4       $unwind$?DloadMakePermanentImageCommit@@YAXPEAX_K@Z 0000000180039bd4     DelayImp:delayhlp.obj
 0002:0000bbe0       $unwind$?DloadProtectSection@@YAXKPEAK@Z 0000000180039be0     DelayImp:delayhlp.obj
 0002:0000bbf0       $unwind$__delayLoadHelper2 0000000180039bf0     DelayImp:delayhlp.obj
 0002:0000bc08       $unwind$_IsNonwritableInCurrentImage 0000000180039c08     LIBCMT:pesect.obj
 0002:0000bc30       $xdatasym                  0000000180039c30     LIBCMT:_chkstk_.obj
 0002:0000bc38       $unwind$strrchr            0000000180039c38     libvcruntime:strrchr.obj
 0002:0000bc40       $xdatasym                  0000000180039c40     libvcruntime:memcmp.obj
 0002:0000cda0       .edata                     000000018003ada0     secp256k1.exp
 0002:0000cdc8       rgpv                       000000018003adc8     secp256k1.exp
 0002:0000cdcc       rgszName                   000000018003adcc     secp256k1.exp
 0002:0000cdd0       rgwOrd                     000000018003add0     secp256k1.exp
 0002:0000cdd2       szName                     000000018003add2     secp256k1.exp
 0002:0000cde1       $N00001                    000000018003ade1     secp256k1.exp
 0002:0000d08c       .idata$6                   000000018003b08c     kernel32:KERNEL32.dll
 0003:00000030       ?__vcrt_flsindex@@3KA      000000018003c030     libvcruntime:per_thread_data.obj
 0003:00000160       ?errno_no_memory@@3HA      000000018003c160     libucrt:errno.obj
 0003:00000164       ?doserrno_no_memory@@3KA   000000018003c164     libucrt:errno.obj
 0003:000001b0       ?__acrt_flsindex@@3KA      000000018003c1b0     libucrt:per_thread_data.obj
 0003:0000032c       ?__rgctypeflag@@3PADA      000000018003c32c     libucrt:mbctype.obj
 0003:00000330       ?__rgcode_page_info@@3PAUcode_page_info@@A 000000018003c330     libucrt:mbctype.obj
 0003:00000650       _mbctypes                  000000018003c650     libucrt:mbctype.obj
 0003:00000760       _mbcasemaps                000000018003c760     libucrt:mbctype.obj
 0003:00000910       ?__dcrt_lowio_console_output_handle@@3PEAXEA 000000018003c910     libucrt:initcon.obj
 0003:00000920       ?dazSupported@?1??_ctrlfp@@9@9 000000018003c920     libucrt:fpctrl.obj
 0003:00000940       _module                    000000018003c940     addon.obj
 0003:00000bf8       ?__proc_attached@@3HA      000000018003cbf8     LIBCMT:dll_dllmain.obj
 0003:00000c00       GS_ExceptionRecord         000000018003cc00     LIBCMT:gs_report.obj
 0003:00000ca0       GS_ContextRecord           000000018003cca0     LIBCMT:gs_report.obj
 0003:00001198       ?is_initialized_as_dll@@3_NA 000000018003d198     LIBCMT:utility.obj
 0003:00001199       ?module_local_atexit_table_initialized@@3_NA 000000018003d199     LIBCMT:utility.obj
 0003:000011a0       ?module_local_atexit_table@@3U_onexit_table_t@@A 000000018003d1a0     LIBCMT:utility.obj
 0003:000011b8       ?module_local_at_quick_exit_table@@3U_onexit_table_t@@A 000000018003d1b8     LIBCMT:utility.obj
 0003:00001220       ?heap@@3V_HeapManager@@A   000000018003d220     libvcruntime:undname.obj
 0003:00001250       ?__vcrt_startup_thread_ptd@@3U__vcrt_ptd@@A 000000018003d250     libvcruntime:per_thread_data.obj
 0003:000012e0       __vcrt_lock_table          000000018003d2e0     libvcruntime:locks.obj
 0003:00001308       __vcrt_locks_initialized   000000018003d308     libvcruntime:locks.obj
 0003:00001310       ?module_handles@@3PAPEAUHINSTANCE__@@A 000000018003d310     libvcruntime:winapi_downlevel.obj
 0003:00001328       ?encoded_function_pointers@@3PAPEAXA 000000018003d328     libvcruntime:winapi_downlevel.obj
 0003:00001370       ?__acrt_new_handler@@3V?$dual_state_global@P6AH_K@Z@__crt_state_management@@A 000000018003d370     libucrt:new_handler.obj
 0003:00001378       ?c_termination_complete@@3JA 000000018003d378     libucrt:exit.obj
 0003:00001380       ?thread_local_exit_callback_func@@3P6AXPEAXK0@ZEA 000000018003d380     libucrt:exit.obj
 0003:00001390       ?program_name@?1???$common_configure_argv@D@@YAHW4_crt_argv_mode@@@Z@4PADA 000000018003d390     libucrt:argv_parsing.obj
 0003:000014e8       ?__acrt_invalid_parameter_handler@@3V?$dual_state_global@P6AXPEB_W00I_K@Z@__crt_state_management@@A 000000018003d4e8     libucrt:invalid_parameter.obj
 0003:000014f0       ?__acrt_app_type@@3W4_crt_app_type@@A 000000018003d4f0     libucrt:report_runtime_error.obj
 0003:000014f4       __acrt_error_mode          000000018003d4f4     libucrt:set_error_mode.obj
 0003:000014f8       ?ctrlc_action@@3V?$dual_state_global@P6AXH@Z@__crt_state_management@@A 000000018003d4f8     libucrt:signal.obj
 0003:00001500       ?ctrlbreak_action@@3V?$dual_state_global@P6AXH@Z@__crt_state_management@@A 000000018003d500     libucrt:signal.obj
 0003:00001508       ?abort_action@@3V?$dual_state_global@P6AXH@Z@__crt_state_management@@A 000000018003d508     libucrt:signal.obj
 0003:00001510       ?term_action@@3V?$dual_state_global@P6AXH@Z@__crt_state_management@@A 000000018003d510     libucrt:signal.obj
 0003:00001520       ?module_handles@@3PAPEAUHINSTANCE__@@A 000000018003d520     libucrt:winapi_thunks.obj
 0003:000015c0       ?encoded_function_pointers@@3PAPEAXA 000000018003d5c0     libucrt:winapi_thunks.obj
 0003:00001ad8       ?internal_state@?1??_mbtowc_l@@9@4U_Mbstatet@@A 000000018003dad8     libucrt:mbtowc.obj
 0003:00001ae0       ?enable_percent_n@@3_KA    000000018003dae0     libucrt:printf_count_output.obj
 0003:00001b10       ?__acrt_lock_table@@3PAU_RTL_CRITICAL_SECTION@@A 000000018003db10     libucrt:locks.obj
 0003:00001d40       ?__acrt_locks_initialized@@3IA 000000018003dd40     libucrt:locks.obj
 0003:00001d44       ?state_cache@?1???$get_cached_win_policy@Udeveloper_information_policy_properties@?1??__acrt_get_developer_information_policy@@YA?AW4developer_information_policy@@XZ@@@YA?AW4developer_information_policy@@W4AppPolicyShowDeveloperDiagnostic@@@Z@4JA 000000018003dd44     libucrt:win_policies.obj
 0003:00001d48       ?state_cache@?1???$get_cached_win_policy@Uwindowing_model_policy_properties@?1??__acrt_get_windowing_model_policy@@YA?AW4windowing_model_policy@@XZ@@@YA?AW4windowing_model_policy@@W4AppPolicyWindowingModel@@@Z@4JA 000000018003dd48     libucrt:win_policies.obj
 0003:00001d68       ?fSystemSet@@3HA           000000018003dd68     libucrt:mbctype.obj
 0003:00001d6c       ?initialized@?1??__acrt_initialize_multibyte@@9@4_NA 000000018003dd6c     libucrt:mbctype.obj
 0003:00001da8       ?user_matherr@@3V?$dual_state_global@P6AHPEAU_exception@@@Z@__crt_state_management@@A 000000018003dda8     libucrt:matherr.obj
 0003:00001db0       ?__acrt_global_new_mode@@3V?$dual_state_global@J@__crt_state_management@@A 000000018003ddb0     libucrt:new_mode.obj
 0003:00001dc0       ?internal_pst@?1??__mbrtoc32_utf8@__crt_mbstring@@YA_KPEA_UPEBD_KPEAU_Mbstatet@@@Z@4U3@A 000000018003ddc0     libucrt:mbrtoc32.obj
 0003:00001dd0       ?internal_pst@?1??__c16rtomb_utf8@__crt_mbstring@@YA_KPEAD_SPEAU_Mbstatet@@@Z@4U3@A 000000018003ddd0     libucrt:c16rtomb.obj
 0004:00000000       $pdata$?FunctionCallbackWrapper@imp@Nan@@YAXAEBV?$FunctionCallbackInfo@VValue@v8@@@v8@@@Z 000000018003e000     addon.obj
 0004:0000000c       $pdata$?Export@Nan@@YAXV?$Local@VObject@v8@@@v8@@PEBDP6AXAEBV?$FunctionCallbackInfo@VValue@v8@@@1@@Z@Z 000000018003e00c     addon.obj
 0004:00000018       $pdata$?Init@@YAXV?$Local@VObject@v8@@@v8@@@Z 000000018003e018     addon.obj
 0004:00000024       $pdata$?ThrowError@Nan@@YAXPEBD@Z 000000018003e024     privatekey.obj
 0004:00000030       $pdata$?ThrowRangeError@Nan@@YAXPEBD@Z 000000018003e030     privatekey.obj
 0004:0000003c       $pdata$?ThrowTypeError@Nan@@YAXPEBD@Z 000000018003e03c     privatekey.obj
 0004:00000048       $pdata$secp256k1_scalar_set_b32 000000018003e048     secp256k1.obj
 0004:00000048       $pdata$?secp256k1_scalar_set_b32@@YAXPEAUsecp256k1_scalar@@PEBEPEAH@Z 000000018003e048     privatekey.obj
 0004:00000054       $pdata$?secp256k1_scalar_reduce_512@@YAXPEAUsecp256k1_scalar@@PEBI@Z 000000018003e054     privatekey.obj
 0004:00000054       $pdata$secp256k1_scalar_reduce_512 000000018003e054     secp256k1.obj
 0004:00000060       $pdata$?secp256k1_scalar_mul_512@@YAXPEAIPEBUsecp256k1_scalar@@1@Z 000000018003e060     privatekey.obj
 0004:00000060       $pdata$secp256k1_scalar_mul_512 000000018003e060     secp256k1.obj
 0004:0000006c       $pdata$?secp256k1_scalar_sqr_512@@YAXPEAIPEBUsecp256k1_scalar@@@Z 000000018003e06c     privatekey.obj
 0004:0000006c       $pdata$secp256k1_scalar_sqr_512 000000018003e06c     secp256k1.obj
 0004:00000078       $pdata$secp256k1_scalar_inverse 000000018003e078     secp256k1.obj
 0004:00000078       $pdata$?secp256k1_scalar_inverse@@YAXPEAUsecp256k1_scalar@@PEBU1@@Z 000000018003e078     privatekey.obj
 0004:00000084       $pdata$?privateKeyVerify@@YAXAEBV?$FunctionCallbackInfo@VValue@v8@@@Nan@@@Z 000000018003e084     privatekey.obj
 0004:00000090       $pdata$?privateKeyExport@@YAXAEBV?$FunctionCallbackInfo@VValue@v8@@@Nan@@@Z 000000018003e090     privatekey.obj
 0004:0000009c       $pdata$?privateKeyImport@@YAXAEBV?$FunctionCallbackInfo@VValue@v8@@@Nan@@@Z 000000018003e09c     privatekey.obj
 0004:000000a8       $pdata$?privateKeyNegate@@YAXAEBV?$FunctionCallbackInfo@VValue@v8@@@Nan@@@Z 000000018003e0a8     privatekey.obj
 0004:000000b4       $pdata$?privateKeyModInverse@@YAXAEBV?$FunctionCallbackInfo@VValue@v8@@@Nan@@@Z 000000018003e0b4     privatekey.obj
 0004:000000c0       $pdata$?privateKeyTweakAdd@@YAXAEBV?$FunctionCallbackInfo@VValue@v8@@@Nan@@@Z 000000018003e0c0     privatekey.obj
 0004:000000cc       $pdata$?privateKeyTweakMul@@YAXAEBV?$FunctionCallbackInfo@VValue@v8@@@Nan@@@Z 000000018003e0cc     privatekey.obj
 0004:000000d8       $pdata$?publicKeyCreate@@YAXAEBV?$FunctionCallbackInfo@VValue@v8@@@Nan@@@Z 000000018003e0d8     publickey.obj
 0004:000000e4       $pdata$?publicKeyConvert@@YAXAEBV?$FunctionCallbackInfo@VValue@v8@@@Nan@@@Z 000000018003e0e4     publickey.obj
 0004:000000f0       $pdata$?publicKeyVerify@@YAXAEBV?$FunctionCallbackInfo@VValue@v8@@@Nan@@@Z 000000018003e0f0     publickey.obj
 0004:000000fc       $pdata$0$?publicKeyVerify@@YAXAEBV?$FunctionCallbackInfo@VValue@v8@@@Nan@@@Z 000000018003e0fc     publickey.obj
 0004:00000108       $pdata$1$?publicKeyVerify@@YAXAEBV?$FunctionCallbackInfo@VValue@v8@@@Nan@@@Z 000000018003e108     publickey.obj
 0004:00000114       $pdata$?publicKeyTweakAdd@@YAXAEBV?$FunctionCallbackInfo@VValue@v8@@@Nan@@@Z 000000018003e114     publickey.obj
 0004:00000120       $pdata$?publicKeyTweakMul@@YAXAEBV?$FunctionCallbackInfo@VValue@v8@@@Nan@@@Z 000000018003e120     publickey.obj
 0004:0000012c       $pdata$?publicKeyCombine@@YAXAEBV?$FunctionCallbackInfo@VValue@v8@@@Nan@@@Z 000000018003e12c     publickey.obj
 0004:00000138       $pdata$1$?publicKeyCombine@@YAXAEBV?$FunctionCallbackInfo@VValue@v8@@@Nan@@@Z 000000018003e138     publickey.obj
 0004:00000144       $pdata$5$?publicKeyCombine@@YAXAEBV?$FunctionCallbackInfo@VValue@v8@@@Nan@@@Z 000000018003e144     publickey.obj
 0004:00000150       $pdata$6$?publicKeyCombine@@YAXAEBV?$FunctionCallbackInfo@VValue@v8@@@Nan@@@Z 000000018003e150     publickey.obj
 0004:0000015c       $pdata$7$?publicKeyCombine@@YAXAEBV?$FunctionCallbackInfo@VValue@v8@@@Nan@@@Z 000000018003e15c     publickey.obj
 0004:00000168       $pdata$?signatureNormalize@@YAXAEBV?$FunctionCallbackInfo@VValue@v8@@@Nan@@@Z 000000018003e168     signature.obj
 0004:00000174       $pdata$?signatureExport@@YAXAEBV?$FunctionCallbackInfo@VValue@v8@@@Nan@@@Z 000000018003e174     signature.obj
 0004:00000180       $pdata$?signatureImport@@YAXAEBV?$FunctionCallbackInfo@VValue@v8@@@Nan@@@Z 000000018003e180     signature.obj
 0004:0000018c       $pdata$?signatureImportLax@@YAXAEBV?$FunctionCallbackInfo@VValue@v8@@@Nan@@@Z 000000018003e18c     signature.obj
 0004:00000198       $pdata$0$?signatureImportLax@@YAXAEBV?$FunctionCallbackInfo@VValue@v8@@@Nan@@@Z 000000018003e198     signature.obj
 0004:000001a4       $pdata$1$?signatureImportLax@@YAXAEBV?$FunctionCallbackInfo@VValue@v8@@@Nan@@@Z 000000018003e1a4     signature.obj
 0004:000001b0       $pdata$?nonce_function_custom@@YAHPEAEPEBE11PEAXI@Z 000000018003e1b0     ecdsa.obj
 0004:000001bc       $pdata$?sign@@YAXAEBV?$FunctionCallbackInfo@VValue@v8@@@Nan@@@Z 000000018003e1bc     ecdsa.obj
 0004:000001c8       $pdata$4$?sign@@YAXAEBV?$FunctionCallbackInfo@VValue@v8@@@Nan@@@Z 000000018003e1c8     ecdsa.obj
 0004:000001d4       $pdata$5$?sign@@YAXAEBV?$FunctionCallbackInfo@VValue@v8@@@Nan@@@Z 000000018003e1d4     ecdsa.obj
 0004:000001e0       $pdata$?verify@@YAXAEBV?$FunctionCallbackInfo@VValue@v8@@@Nan@@@Z 000000018003e1e0     ecdsa.obj
 0004:000001ec       $pdata$?recover@@YAXAEBV?$FunctionCallbackInfo@VValue@v8@@@Nan@@@Z 000000018003e1ec     ecdsa.obj
 0004:000001f8       $pdata$?ecdh@@YAXAEBV?$FunctionCallbackInfo@VValue@v8@@@Nan@@@Z 000000018003e1f8     ecdh.obj
 0004:00000204       $pdata$?ecdhUnsafe@@YAXAEBV?$FunctionCallbackInfo@VValue@v8@@@Nan@@@Z 000000018003e204     ecdh.obj
 0004:00000210       $pdata$fprintf             000000018003e210     secp256k1.obj
 0004:0000021c       $pdata$secp256k1_fe_normalize 000000018003e21c     secp256k1.obj
 0004:00000228       $pdata$secp256k1_fe_normalize_weak 000000018003e228     secp256k1.obj
 0004:00000234       $pdata$secp256k1_fe_normalize_var 000000018003e234     secp256k1.obj
 0004:00000240       $pdata$secp256k1_fe_normalizes_to_zero 000000018003e240     secp256k1.obj
 0004:0000024c       $pdata$secp256k1_fe_normalizes_to_zero_var 000000018003e24c     secp256k1.obj
 0004:00000258       $pdata$secp256k1_fe_set_b32 000000018003e258     secp256k1.obj
 0004:00000264       $pdata$secp256k1_fe_mul_inner 000000018003e264     secp256k1.obj
 0004:00000270       $pdata$secp256k1_fe_sqr_inner 000000018003e270     secp256k1.obj
 0004:0000027c       $pdata$secp256k1_fe_cmov   000000018003e27c     secp256k1.obj
 0004:00000288       $pdata$secp256k1_fe_sqrt   000000018003e288     secp256k1.obj
 0004:00000294       $pdata$secp256k1_fe_inv    000000018003e294     secp256k1.obj
 0004:000002a0       $pdata$secp256k1_scalar_add 000000018003e2a0     secp256k1.obj
 0004:000002ac       $pdata$secp256k1_scalar_negate 000000018003e2ac     secp256k1.obj
 0004:000002b8       $pdata$secp256k1_scalar_is_high 000000018003e2b8     secp256k1.obj
 0004:000002c4       $pdata$secp256k1_scalar_cond_negate 000000018003e2c4     secp256k1.obj
 0004:000002d0       $pdata$secp256k1_ge_set_gej 000000018003e2d0     secp256k1.obj
 0004:000002dc       $pdata$secp256k1_ge_globalz_set_table_gej 000000018003e2dc     secp256k1.obj
 0004:000002e8       $pdata$secp256k1_ge_set_xo_var 000000018003e2e8     secp256k1.obj
 0004:000002f4       $pdata$secp256k1_gej_eq_x_var 000000018003e2f4     secp256k1.obj
 0004:00000300       $pdata$secp256k1_gej_neg   000000018003e300     secp256k1.obj
 0004:0000030c       $pdata$secp256k1_gej_double_var 000000018003e30c     secp256k1.obj
 0004:00000318       $pdata$2$secp256k1_gej_double_var 000000018003e318     secp256k1.obj
 0004:00000324       $pdata$3$secp256k1_gej_double_var 000000018003e324     secp256k1.obj
 0004:00000330       $pdata$secp256k1_gej_add_var 000000018003e330     secp256k1.obj
 0004:0000033c       $pdata$3$secp256k1_gej_add_var 000000018003e33c     secp256k1.obj
 0004:00000348       $pdata$secp256k1_gej_add_ge_var 000000018003e348     secp256k1.obj
 0004:00000354       $pdata$1$secp256k1_gej_add_ge_var 000000018003e354     secp256k1.obj
 0004:00000360       $pdata$2$secp256k1_gej_add_ge_var 000000018003e360     secp256k1.obj
 0004:0000036c       $pdata$secp256k1_gej_add_zinv_var 000000018003e36c     secp256k1.obj
 0004:00000378       $pdata$1$secp256k1_gej_add_zinv_var 000000018003e378     secp256k1.obj
 0004:00000384       $pdata$2$secp256k1_gej_add_zinv_var 000000018003e384     secp256k1.obj
 0004:00000390       $pdata$secp256k1_gej_add_ge 000000018003e390     secp256k1.obj
 0004:0000039c       $pdata$secp256k1_ge_to_storage 000000018003e39c     secp256k1.obj
 0004:000003a8       $pdata$secp256k1_ecmult_odd_multiples_table 000000018003e3a8     secp256k1.obj
 0004:000003b4       $pdata$secp256k1_ecmult_odd_multiples_table_storage_var 000000018003e3b4     secp256k1.obj
 0004:000003c0       $pdata$secp256k1_ecmult_wnaf 000000018003e3c0     secp256k1.obj
 0004:000003cc       $pdata$secp256k1_ecmult_strauss_wnaf 000000018003e3cc     secp256k1.obj
 0004:000003d8       $pdata$secp256k1_wnaf_const 000000018003e3d8     secp256k1.obj
 0004:000003e4       $pdata$secp256k1_ecmult_const 000000018003e3e4     secp256k1.obj
 0004:000003f0       $pdata$secp256k1_sha256_transform 000000018003e3f0     secp256k1.obj
 0004:000003fc       $pdata$secp256k1_sha256_write 000000018003e3fc     secp256k1.obj
 0004:00000408       $pdata$1$secp256k1_sha256_write 000000018003e408     secp256k1.obj
 0004:00000414       $pdata$2$secp256k1_sha256_write 000000018003e414     secp256k1.obj
 0004:00000420       $pdata$secp256k1_sha256_finalize 000000018003e420     secp256k1.obj
 0004:0000042c       $pdata$1$secp256k1_sha256_finalize 000000018003e42c     secp256k1.obj
 0004:00000438       $pdata$2$secp256k1_sha256_finalize 000000018003e438     secp256k1.obj
 0004:00000444       $pdata$secp256k1_hmac_sha256_initialize 000000018003e444     secp256k1.obj
 0004:00000450       $pdata$secp256k1_hmac_sha256_finalize 000000018003e450     secp256k1.obj
 0004:0000045c       $pdata$0$secp256k1_hmac_sha256_finalize 000000018003e45c     secp256k1.obj
 0004:00000468       $pdata$1$secp256k1_hmac_sha256_finalize 000000018003e468     secp256k1.obj
 0004:00000474       $pdata$secp256k1_rfc6979_hmac_sha256_initialize 000000018003e474     secp256k1.obj
 0004:00000480       $pdata$secp256k1_rfc6979_hmac_sha256_generate 000000018003e480     secp256k1.obj
 0004:0000048c       $pdata$secp256k1_ecmult_gen_context_build 000000018003e48c     secp256k1.obj
 0004:00000498       $pdata$1$secp256k1_ecmult_gen_context_build 000000018003e498     secp256k1.obj
 0004:000004a4       $pdata$4$secp256k1_ecmult_gen_context_build 000000018003e4a4     secp256k1.obj
 0004:000004b0       $pdata$6$secp256k1_ecmult_gen_context_build 000000018003e4b0     secp256k1.obj
 0004:000004bc       $pdata$7$secp256k1_ecmult_gen_context_build 000000018003e4bc     secp256k1.obj
 0004:000004c8       $pdata$8$secp256k1_ecmult_gen_context_build 000000018003e4c8     secp256k1.obj
 0004:000004d4       $pdata$9$secp256k1_ecmult_gen_context_build 000000018003e4d4     secp256k1.obj
 0004:000004e0       $pdata$secp256k1_ecmult_gen 000000018003e4e0     secp256k1.obj
 0004:000004ec       $pdata$secp256k1_ecmult_gen_blind 000000018003e4ec     secp256k1.obj
 0004:000004f8       $pdata$secp256k1_der_read_len 000000018003e4f8     secp256k1.obj
 0004:00000504       $pdata$secp256k1_der_parse_integer 000000018003e504     secp256k1.obj
 0004:00000510       $pdata$secp256k1_eckey_pubkey_parse 000000018003e510     secp256k1.obj
 0004:0000051c       $pdata$default_illegal_callback_fn 000000018003e51c     secp256k1.obj
 0004:00000528       $pdata$default_error_callback_fn 000000018003e528     secp256k1.obj
 0004:00000534       $pdata$secp256k1_pubkey_load 000000018003e534     secp256k1.obj
 0004:00000540       $pdata$secp256k1_ec_pubkey_parse 000000018003e540     secp256k1.obj
 0004:0000054c       $pdata$secp256k1_ec_pubkey_serialize 000000018003e54c     secp256k1.obj
 0004:00000558       $pdata$1$secp256k1_ec_pubkey_serialize 000000018003e558     secp256k1.obj
 0004:00000564       $pdata$2$secp256k1_ec_pubkey_serialize 000000018003e564     secp256k1.obj
 0004:00000570       $pdata$secp256k1_ecdsa_signature_parse_compact 000000018003e570     secp256k1.obj
 0004:0000057c       $pdata$secp256k1_ecdsa_signature_serialize_der 000000018003e57c     secp256k1.obj
 0004:00000588       $pdata$2$secp256k1_ecdsa_signature_serialize_der 000000018003e588     secp256k1.obj
 0004:00000594       $pdata$3$secp256k1_ecdsa_signature_serialize_der 000000018003e594     secp256k1.obj
 0004:000005a0       $pdata$secp256k1_ecdsa_verify 000000018003e5a0     secp256k1.obj
 0004:000005ac       $pdata$3$secp256k1_ecdsa_verify 000000018003e5ac     secp256k1.obj
 0004:000005b8       $pdata$4$secp256k1_ecdsa_verify 000000018003e5b8     secp256k1.obj
 0004:000005c4       $pdata$nonce_function_rfc6979 000000018003e5c4     secp256k1.obj
 0004:000005d0       $pdata$secp256k1_ec_seckey_verify 000000018003e5d0     secp256k1.obj
 0004:000005dc       $pdata$secp256k1_ec_pubkey_create 000000018003e5dc     secp256k1.obj
 0004:000005e8       $pdata$0$secp256k1_ec_pubkey_create 000000018003e5e8     secp256k1.obj
 0004:000005f4       $pdata$2$secp256k1_ec_pubkey_create 000000018003e5f4     secp256k1.obj
 0004:00000600       $pdata$5$secp256k1_ec_pubkey_create 000000018003e600     secp256k1.obj
 0004:0000060c       $pdata$secp256k1_ec_pubkey_tweak_add 000000018003e60c     secp256k1.obj
 0004:00000618       $pdata$0$secp256k1_ec_pubkey_tweak_add 000000018003e618     secp256k1.obj
 0004:00000624       $pdata$1$secp256k1_ec_pubkey_tweak_add 000000018003e624     secp256k1.obj
 0004:00000630       $pdata$secp256k1_ec_pubkey_tweak_mul 000000018003e630     secp256k1.obj
 0004:0000063c       $pdata$0$secp256k1_ec_pubkey_tweak_mul 000000018003e63c     secp256k1.obj
 0004:00000648       $pdata$1$secp256k1_ec_pubkey_tweak_mul 000000018003e648     secp256k1.obj
 0004:00000654       $pdata$secp256k1_ec_pubkey_combine 000000018003e654     secp256k1.obj
 0004:00000660       $pdata$1$secp256k1_ec_pubkey_combine 000000018003e660     secp256k1.obj
 0004:0000066c       $pdata$2$secp256k1_ec_pubkey_combine 000000018003e66c     secp256k1.obj
 0004:00000678       $pdata$ecdh_hash_function_sha256 000000018003e678     secp256k1.obj
 0004:00000684       $pdata$0$ecdh_hash_function_sha256 000000018003e684     secp256k1.obj
 0004:00000690       $pdata$1$ecdh_hash_function_sha256 000000018003e690     secp256k1.obj
 0004:0000069c       $pdata$secp256k1_ecdh      000000018003e69c     secp256k1.obj
 0004:000006a8       $pdata$secp256k1_ecdsa_sign_recoverable 000000018003e6a8     secp256k1.obj
 0004:000006b4       $pdata$0$secp256k1_ecdsa_sign_recoverable 000000018003e6b4     secp256k1.obj
 0004:000006c0       $pdata$1$secp256k1_ecdsa_sign_recoverable 000000018003e6c0     secp256k1.obj
 0004:000006cc       $pdata$2$secp256k1_ecdsa_sign_recoverable 000000018003e6cc     secp256k1.obj
 0004:000006d8       $pdata$secp256k1_ecdsa_recover 000000018003e6d8     secp256k1.obj
 0004:000006e4       $pdata$2$secp256k1_ecdsa_recover 000000018003e6e4     secp256k1.obj
 0004:000006f0       $pdata$3$secp256k1_ecdsa_recover 000000018003e6f0     secp256k1.obj
 0004:000006fc       $pdata$4$secp256k1_ecdsa_recover 000000018003e6fc     secp256k1.obj
 0004:00000708       $pdata$ecdsa_signature_parse_der_lax 000000018003e708     lax_der_parsing.obj
 0004:00000714       $pdata$ec_privkey_export_der 000000018003e714     lax_der_privatekey_parsing.obj
 0004:00000720       $pdata$0$ec_privkey_export_der 000000018003e720     lax_der_privatekey_parsing.obj
 0004:0000072c       $pdata$1$ec_privkey_export_der 000000018003e72c     lax_der_privatekey_parsing.obj
 0004:00000738       $pdata$?load_exe_hook@@YAP6A_JXZIPEAUDelayLoadInfo@@@Z 000000018003e738     win_delay_load_hook.obj
 0004:0000075c       $pdata$?dllmain_crt_dispatch@@YAHQEAUHINSTANCE__@@KQEAX@Z 000000018003e75c     LIBCMT:dll_dllmain.obj
 0004:00000768       $pdata$?dllmain_crt_process_attach@@YAHQEAUHINSTANCE__@@QEAX@Z 000000018003e768     LIBCMT:dll_dllmain.obj
 0004:00000774       $pdata$?dllmain_crt_process_detach@@YAH_N@Z 000000018003e774     LIBCMT:dll_dllmain.obj
 0004:00000780       $pdata$?dllmain_dispatch@@YAHQEAUHINSTANCE__@@KQEAX@Z 000000018003e780     LIBCMT:dll_dllmain.obj
 0004:0000078c       $pdata$_DllMainCRTStartup  000000018003e78c     LIBCMT:dll_dllmain.obj
 0004:00000798       $pdata$__raise_securityfailure 000000018003e798     LIBCMT:gs_report.obj
 0004:000007a4       $pdata$__report_gsfailure  000000018003e7a4     LIBCMT:gs_report.obj
 0004:000007b0       $pdata$__report_rangecheckfailure 000000018003e7b0     LIBCMT:gs_report.obj
 0004:000007bc       $pdata$__report_securityfailure 000000018003e7bc     LIBCMT:gs_report.obj
 0004:000007c8       $pdata$capture_current_context 000000018003e7c8     LIBCMT:gs_report.obj
 0004:000007d4       $pdata$capture_previous_context 000000018003e7d4     LIBCMT:gs_report.obj
 0004:000007e0       $pdata$??2@YAPEAX_K@Z      000000018003e7e0     LIBCMT:new_scalar.obj
 0004:000007ec       $pdata$__security_init_cookie 000000018003e7ec     LIBCMT:gs_support.obj
 0004:000007f8       $pdata$__scrt_initialize_default_local_stdio_options 000000018003e7f8     LIBCMT:default_local_stdio_options.obj
 0004:00000804       $pdata$__scrt_acquire_startup_lock 000000018003e804     LIBCMT:utility.obj
 0004:00000810       $pdata$__scrt_dllmain_after_initialize_c 000000018003e810     LIBCMT:utility.obj
 0004:0000081c       $pdata$__scrt_dllmain_before_initialize_c 000000018003e81c     LIBCMT:utility.obj
 0004:00000828       $pdata$__scrt_dllmain_crt_thread_attach 000000018003e828     LIBCMT:utility.obj
 0004:00000834       $pdata$__scrt_dllmain_crt_thread_detach 000000018003e834     LIBCMT:utility.obj
 0004:00000840       $pdata$__scrt_dllmain_exception_filter 000000018003e840     LIBCMT:utility.obj
 0004:0000084c       $pdata$__scrt_dllmain_uninitialize_c 000000018003e84c     LIBCMT:utility.obj
 0004:00000858       $pdata$__scrt_dllmain_uninitialize_critical 000000018003e858     LIBCMT:utility.obj
 0004:00000864       $pdata$__scrt_initialize_crt 000000018003e864     LIBCMT:utility.obj
 0004:00000870       $pdata$__scrt_initialize_onexit_tables 000000018003e870     LIBCMT:utility.obj
 0004:0000087c       $pdata$__scrt_is_nonwritable_in_current_image 000000018003e87c     LIBCMT:utility.obj
 0004:00000888       $pdata$__scrt_release_startup_lock 000000018003e888     LIBCMT:utility.obj
 0004:00000894       $pdata$__scrt_uninitialize_crt 000000018003e894     LIBCMT:utility.obj
 0004:000008a0       $pdata$__scrt_fastfail     000000018003e8a0     LIBCMT:utility_desktop.obj
 0004:000008ac       $pdata$_RTC_Initialize     000000018003e8ac     LIBCMT:_initsect_.obj
 0004:000008b8       $pdata$_RTC_Terminate      000000018003e8b8     LIBCMT:_initsect_.obj
 0004:000008c4       $pdata$??0bad_alloc@std@@QEAA@AEBV01@@Z 000000018003e8c4     LIBCMT:throw_bad_alloc.obj
 0004:000008d0       $pdata$??0bad_array_new_length@std@@QEAA@AEBV01@@Z 000000018003e8d0     LIBCMT:throw_bad_alloc.obj
 0004:000008dc       $pdata$??0exception@std@@QEAA@AEBV01@@Z 000000018003e8dc     LIBCMT:throw_bad_alloc.obj
 0004:000008e8       $pdata$??_Gexception@std@@UEAAPEAXI@Z 000000018003e8e8     LIBCMT:throw_bad_alloc.obj
 0004:000008e8       $pdata$??_Gbad_exception@std@@UEAAPEAXI@Z 000000018003e8e8     libvcruntime:frame.obj
 0004:000008e8       $pdata$??_Gbad_alloc@std@@UEAAPEAXI@Z 000000018003e8e8     LIBCMT:throw_bad_alloc.obj
 0004:000008e8       $pdata$??_Gbad_array_new_length@std@@UEAAPEAXI@Z 000000018003e8e8     LIBCMT:throw_bad_alloc.obj
 0004:000008f4       $pdata$?__scrt_throw_std_bad_alloc@@YAXXZ 000000018003e8f4     LIBCMT:throw_bad_alloc.obj
 0004:00000900       $pdata$?__scrt_throw_std_bad_array_new_length@@YAXXZ 000000018003e900     LIBCMT:throw_bad_alloc.obj
 0004:0000090c       $pdata$__isa_available_init 000000018003e90c     LIBCMT:_cpu_disp_.obj
 0004:00000918       $pdata$??_Gtype_info@@UEAAPEAXI@Z 000000018003e918     LIBCMT:std_type_info_static.obj
 0004:00000924       $pdata$__C_specific_handler 000000018003e924     libvcruntime:_riscchandler_.obj
 0004:00000930       $pdata$__std_type_info_destroy_list 000000018003e930     libvcruntime:std_type_info.obj
 0004:0000093c       $pdata$__vcrt_initialize   000000018003e93c     libvcruntime:initialization.obj
 0004:00000948       $pdata$__vcrt_thread_attach 000000018003e948     libvcruntime:initialization.obj
 0004:00000954       $pdata$__vcrt_thread_detach 000000018003e954     libvcruntime:initialization.obj
 0004:00000960       $pdata$__vcrt_uninitialize 000000018003e960     libvcruntime:initialization.obj
 0004:0000096c       $pdata$__vcrt_uninitialize_critical 000000018003e96c     libvcruntime:initialization.obj
 0004:00000990       $pdata$__std_exception_copy 000000018003e990     libvcruntime:std_exception.obj
 0004:0000099c       $pdata$__std_exception_destroy 000000018003e99c     libvcruntime:std_exception.obj
 0004:000009a8       $pdata$_CxxThrowException  000000018003e9a8     libvcruntime:throw.obj
 0004:000009d8       $pdata$__DestructExceptionObject 000000018003e9d8     libvcruntime:ehhelpers.obj
 0004:000009e4       $pdata$_IsExceptionObjectToBeDestroyed 000000018003e9e4     libvcruntime:ehhelpers.obj
 0004:000009f0       $pdata$__FrameUnwindFilter 000000018003e9f0     libvcruntime:ehhelpers.obj
 0004:000009fc       $pdata$__vcrt_freefls      000000018003e9fc     libvcruntime:per_thread_data.obj
 0004:00000a08       $pdata$__vcrt_freeptd      000000018003ea08     libvcruntime:per_thread_data.obj
 0004:00000a14       $pdata$__vcrt_getptd       000000018003ea14     libvcruntime:per_thread_data.obj
 0004:00000a20       $pdata$__vcrt_getptd_noexit 000000018003ea20     libvcruntime:per_thread_data.obj
 0004:00000a2c       $pdata$__vcrt_initialize_ptd 000000018003ea2c     libvcruntime:per_thread_data.obj
 0004:00000a38       $pdata$__vcrt_uninitialize_ptd 000000018003ea38     libvcruntime:per_thread_data.obj
 0004:00000a44       $pdata$__vcrt_initialize_locks 000000018003ea44     libvcruntime:locks.obj
 0004:00000a50       $pdata$__vcrt_uninitialize_locks 000000018003ea50     libvcruntime:locks.obj
 0004:00000a5c       $pdata$?try_get_function@@YAPEAXW4function_id@?A0xcc2f1bd3@@QEBDQEBW4module_id@2@2@Z 000000018003ea5c     libvcruntime:winapi_downlevel.obj
 0004:00000a68       $pdata$__vcrt_FlsAlloc     000000018003ea68     libvcruntime:winapi_downlevel.obj
 0004:00000a74       $pdata$__vcrt_FlsFree      000000018003ea74     libvcruntime:winapi_downlevel.obj
 0004:00000a80       $pdata$__vcrt_FlsGetValue  000000018003ea80     libvcruntime:winapi_downlevel.obj
 0004:00000a8c       $pdata$__vcrt_FlsSetValue  000000018003ea8c     libvcruntime:winapi_downlevel.obj
 0004:00000a98       $pdata$__vcrt_InitializeCriticalSectionEx 000000018003ea98     libvcruntime:winapi_downlevel.obj
 0004:00000aa4       $pdata$__vcrt_initialize_winapi_thunks 000000018003eaa4     libvcruntime:winapi_downlevel.obj
 0004:00000ab0       $pdata$__vcrt_uninitialize_winapi_thunks 000000018003eab0     libvcruntime:winapi_downlevel.obj
 0004:00000abc       $pdata$??$_CallSETranslator@V__FrameHandler3@@@@YAHPEAUEHExceptionRecord@@PEA_KPEAU_CONTEXT@@PEAU_xDISPATCHER_CONTEXT@@PEBU_s_FuncInfo@@K1@Z 000000018003eabc     libvcruntime:risctrnsctrl.obj
 0004:00000ac8       $pdata$?CatchTryBlock@__FrameHandler3@@SAPEBU_s_TryBlockMapEntry@@PEBU_s_FuncInfo@@H@Z 000000018003eac8     libvcruntime:risctrnsctrl.obj
 0004:00000ad4       $pdata$?ExecutionInCatch@__FrameHandler3@@SA_NPEAU_xDISPATCHER_CONTEXT@@PEBU_s_FuncInfo@@@Z 000000018003ead4     libvcruntime:risctrnsctrl.obj
 0004:00000ae0       $pdata$?FrameUnwindToEmptyState@__FrameHandler3@@SAXPEA_KPEAU_xDISPATCHER_CONTEXT@@PEBU_s_FuncInfo@@@Z 000000018003eae0     libvcruntime:risctrnsctrl.obj
 0004:00000aec       $pdata$?GetEstablisherFrame@__FrameHandler3@@SAPEA_KPEA_KPEAU_xDISPATCHER_CONTEXT@@PEBU_s_FuncInfo@@0@Z 000000018003eaec     libvcruntime:risctrnsctrl.obj
 0004:00000af8       $pdata$?GetRangeOfTrysToCheck@__FrameHandler3@@SA?AU?$pair@Viterator@TryBlockMap@__FrameHandler3@@V123@@std@@AEAVTryBlockMap@1@HH@Z 000000018003eaf8     libvcruntime:risctrnsctrl.obj
 0004:00000b04       $pdata$?UnwindNestedFrames@__FrameHandler3@@SAXPEA_KPEAUEHExceptionRecord@@PEAU_CONTEXT@@0PEAXPEBU_s_FuncInfo@@HHPEBU_s_HandlerType@@PEAU_xDISPATCHER_CONTEXT@@E@Z 000000018003eb04     libvcruntime:risctrnsctrl.obj
 0004:00000b10       $pdata$_CreateFrameInfo    000000018003eb10     libvcruntime:risctrnsctrl.obj
 0004:00000b1c       $pdata$_FindAndUnlinkFrame 000000018003eb1c     libvcruntime:risctrnsctrl.obj
 0004:00000b28       $pdata$_GetImageBase       000000018003eb28     libvcruntime:risctrnsctrl.obj
 0004:00000b34       $pdata$_GetThrowImageBase  000000018003eb34     libvcruntime:risctrnsctrl.obj
 0004:00000b40       $pdata$_SetImageBase       000000018003eb40     libvcruntime:risctrnsctrl.obj
 0004:00000b4c       $pdata$_SetThrowImageBase  000000018003eb4c     libvcruntime:risctrnsctrl.obj
 0004:00000b58       $pdata$__CxxFrameHandler3  000000018003eb58     libvcruntime:risctrnsctrl.obj
 0004:00000b7c       $pdata$?GetCurrentState@__FrameHandler3@@SAHPEA_KPEAU_xDISPATCHER_CONTEXT@@PEBU_s_FuncInfo@@@Z 000000018003eb7c     libvcruntime:ehstate.obj
 0004:00000b88       $pdata$?GetUnwindTryBlock@__FrameHandler3@@SAHPEA_KPEAU_xDISPATCHER_CONTEXT@@PEBU_s_FuncInfo@@@Z 000000018003eb88     libvcruntime:ehstate.obj
 0004:00000b94       $pdata$?SetUnwindTryBlock@__FrameHandler3@@SAXPEA_KPEAU_xDISPATCHER_CONTEXT@@PEBU_s_FuncInfo@@H@Z 000000018003eb94     libvcruntime:ehstate.obj
 0004:00000ba0       $pdata$?StateFromIp@__FrameHandler3@@SAHPEBU_s_FuncInfo@@PEAU_xDISPATCHER_CONTEXT@@_K@Z 000000018003eba0     libvcruntime:ehstate.obj
 0004:00000bac       $pdata$??$BuildCatchObjectHelperInternal@$$CBU_s_HandlerType@@@@YAHPEAUEHExceptionRecord@@PEAXPEBU_s_HandlerType@@PEBU_s_CatchableType@@@Z 000000018003ebac     libvcruntime:frame.obj
 0004:00000bb8       $pdata$??$BuildCatchObjectInternal@$$CBU_s_HandlerType@@@@YAXPEAUEHExceptionRecord@@PEAXPEBU_s_HandlerType@@PEBU_s_CatchableType@@@Z 000000018003ebb8     libvcruntime:frame.obj
 0004:00000bc4       $pdata$??$CatchIt@V__FrameHandler3@@@@YAXPEAUEHExceptionRecord@@PEA_KPEAU_CONTEXT@@PEAU_xDISPATCHER_CONTEXT@@PEBU_s_FuncInfo@@PEBU_s_HandlerType@@PEBU_s_CatchableType@@PEBU_s_TryBlockMapEntry@@H1EE@Z 000000018003ebc4     libvcruntime:frame.obj
 0004:00000bd0       $pdata$??$FindHandler@V__FrameHandler3@@@@YAXPEAUEHExceptionRecord@@PEA_KPEAU_CONTEXT@@PEAU_xDISPATCHER_CONTEXT@@PEBU_s_FuncInfo@@EH1@Z 000000018003ebd0     libvcruntime:frame.obj
 0004:00000bdc       $pdata$??$FindHandlerForForeignException@V__FrameHandler3@@@@YAXPEAUEHExceptionRecord@@PEA_KPEAU_CONTEXT@@PEAU_xDISPATCHER_CONTEXT@@PEBU_s_FuncInfo@@HH1@Z 000000018003ebdc     libvcruntime:frame.obj
 0004:00000be8       $pdata$??$TypeMatchHelper@$$CBU_s_HandlerType@@@@YAHPEBU_s_HandlerType@@PEBU_s_CatchableType@@PEBU_s_ThrowInfo@@@Z 000000018003ebe8     libvcruntime:frame.obj
 0004:00000bf4       $pdata$??$__InternalCxxFrameHandler@V__FrameHandler3@@@@YA?AW4_EXCEPTION_DISPOSITION@@PEAUEHExceptionRecord@@PEA_KPEAU_CONTEXT@@PEAU_xDISPATCHER_CONTEXT@@PEBU_s_FuncInfo@@H1E@Z 000000018003ebf4     libvcruntime:frame.obj
 0004:00000c00       $pdata$??0bad_exception@std@@QEAA@AEBV01@@Z 000000018003ec00     libvcruntime:frame.obj
 0004:00000c0c       $pdata$?CxxCallCatchBlock@__FrameHandler3@@SAPEAXPEAU_EXCEPTION_RECORD@@@Z 000000018003ec0c     libvcruntime:frame.obj
 0004:00000c18       $pdata$?ExFilterRethrow@@YAHPEAU_EXCEPTION_POINTERS@@PEAUEHExceptionRecord@@PEAH@Z 000000018003ec18     libvcruntime:frame.obj
 0004:00000c24       $pdata$?FrameUnwindToState@__FrameHandler3@@SAXPEA_KPEAU_xDISPATCHER_CONTEXT@@PEBU_s_FuncInfo@@H@Z 000000018003ec24     libvcruntime:frame.obj
 0004:00000c30       $pdata$?GetHandlerSearchState@__FrameHandler3@@SAHPEA_KPEAU_xDISPATCHER_CONTEXT@@PEBU_s_FuncInfo@@@Z 000000018003ec30     libvcruntime:frame.obj
 0004:00000c3c       $pdata$?IsInExceptionSpec@@YAEPEAUEHExceptionRecord@@PEBU_s_ESTypeList@@@Z 000000018003ec3c     libvcruntime:frame.obj
 0004:00000c48       $pdata$?Is_bad_exception_allowed@@YAEPEBU_s_ESTypeList@@@Z 000000018003ec48     libvcruntime:frame.obj
 0004:00000c6c       $pdata$??$common_assert_to_message_box@_W@@YAXQEB_W0IQEAX@Z 000000018003ec6c     libucrt:assert.obj
 0004:00000c78       $pdata$??$common_assert_to_message_box_build_string@_W@@YAXQEA_W_KQEB_W2IQEAX@Z 000000018003ec78     libucrt:assert.obj
 0004:00000c84       $pdata$??$common_assert_to_stderr@_W@@YAXQEB_W0I@Z 000000018003ec84     libucrt:assert.obj
 0004:00000c90       $pdata$_wassert            000000018003ec90     libucrt:assert.obj
 0004:00000c9c       $pdata$fwprintf            000000018003ec9c     libucrt:assert.obj
 0004:00000ca8       $pdata$swprintf            000000018003eca8     libucrt:assert.obj
 0004:00000cb4       $pdata$abort               000000018003ecb4     libucrt:abort.obj
 0004:00000cc0       $pdata$__acrt_initialize_stdio 000000018003ecc0     libucrt:_file.obj
 0004:00000ccc       $pdata$__acrt_uninitialize_stdio 000000018003eccc     libucrt:_file.obj
 0004:00000cd8       $pdata$??$?RV<lambda_0d412022a4b28cc8a401ea49574e8ae6>@@AEAV<lambda_a775ed57af18ba8e4d5dc780aa9068fe>@@V<lambda_975a71a6baa488a08f4e15f6b0339b9e>@@@?$__crt_seh_guarded_call@H@@QEAAH$$QEAV<lambda_0d412022a4b28cc8a401ea49574e8ae6>@@AEAV<lambda_a775ed57af18ba8e4d5dc780aa9068fe>@@$$QEAV<lambda_975a71a6baa488a08f4e15f6b0339b9e>@@@Z 000000018003ecd8     libucrt:output.obj
 0004:00000ce4       $pdata$??$?RV<lambda_a62c933ada0517137acf5807a1eeac1f>@@AEAV<lambda_a31071773b9a94e445cbd5d04ef99106>@@V<lambda_56065050dbf3ada7e59a83db45153de3>@@@?$__crt_seh_guarded_call@H@@QEAAH$$QEAV<lambda_a62c933ada0517137acf5807a1eeac1f>@@AEAV<lambda_a31071773b9a94e445cbd5d04ef99106>@@$$QEAV<lambda_56065050dbf3ada7e59a83db45153de3>@@@Z 000000018003ece4     libucrt:output.obj
 0004:00000cf0       $pdata$??$common_vsprintf@Vstandard_base@__crt_stdio_output@@_W@@YAH_KQEA_W0QEB_WQEAU__crt_locale_pointers@@QEAD@Z 000000018003ecf0     libucrt:output.obj
 0004:00000cfc       $pdata$??$ensure_buffer_is_big_enough@D@formatting_buffer@__crt_stdio_output@@QEAA_N_K@Z 000000018003ecfc     libucrt:output.obj
 0004:00000d08       $pdata$??$ensure_buffer_is_big_enough@_W@formatting_buffer@__crt_stdio_output@@QEAA_N_K@Z 000000018003ed08     libucrt:output.obj
 0004:00000d14       $pdata$??$type_case_integer_parse_into_buffer@I@?$output_processor@DV?$stream_output_adapter@D@__crt_stdio_output@@V?$standard_base@DV?$stream_output_adapter@D@__crt_stdio_output@@@2@@__crt_stdio_output@@AEAAXII_N@Z 000000018003ed14     libucrt:output.obj
 0004:00000d20       $pdata$??$type_case_integer_parse_into_buffer@I@?$output_processor@_WV?$string_output_adapter@_W@__crt_stdio_output@@V?$standard_base@_WV?$string_output_adapter@_W@__crt_stdio_output@@@2@@__crt_stdio_output@@AEAAXII_N@Z 000000018003ed20     libucrt:output.obj
 0004:00000d20       $pdata$??$type_case_integer_parse_into_buffer@I@?$output_processor@_WV?$stream_output_adapter@_W@__crt_stdio_output@@V?$standard_base@_WV?$stream_output_adapter@_W@__crt_stdio_output@@@2@@__crt_stdio_output@@AEAAXII_N@Z 000000018003ed20     libucrt:output.obj
 0004:00000d2c       $pdata$??$type_case_integer_parse_into_buffer@_K@?$output_processor@DV?$stream_output_adapter@D@__crt_stdio_output@@V?$standard_base@DV?$stream_output_adapter@D@__crt_stdio_output@@@2@@__crt_stdio_output@@AEAAX_KI_N@Z 000000018003ed2c     libucrt:output.obj
 0004:00000d38       $pdata$??$type_case_integer_parse_into_buffer@_K@?$output_processor@_WV?$stream_output_adapter@_W@__crt_stdio_output@@V?$standard_base@_WV?$stream_output_adapter@_W@__crt_stdio_output@@@2@@__crt_stdio_output@@AEAAX_KI_N@Z 000000018003ed38     libucrt:output.obj
 0004:00000d38       $pdata$??$type_case_integer_parse_into_buffer@_K@?$output_processor@_WV?$string_output_adapter@_W@__crt_stdio_output@@V?$standard_base@_WV?$string_output_adapter@_W@__crt_stdio_output@@@2@@__crt_stdio_output@@AEAAX_KI_N@Z 000000018003ed38     libucrt:output.obj
 0004:00000d44       $pdata$??$write_multiple_characters@V?$stream_output_adapter@D@__crt_stdio_output@@D@__crt_stdio_output@@YAXAEBV?$stream_output_adapter@D@0@DHQEAH@Z 000000018003ed44     libucrt:output.obj
 0004:00000d50       $pdata$??$write_multiple_characters@V?$stream_output_adapter@_W@__crt_stdio_output@@D@__crt_stdio_output@@YAXAEBV?$stream_output_adapter@_W@0@DHQEAH@Z 000000018003ed50     libucrt:output.obj
 0004:00000d5c       $pdata$??$write_multiple_characters@V?$string_output_adapter@_W@__crt_stdio_output@@D@__crt_stdio_output@@YAXAEBV?$string_output_adapter@_W@0@DHQEAH@Z 000000018003ed5c     libucrt:output.obj
 0004:00000d68       $pdata$??0_LocaleUpdate@@QEAA@QEAU__crt_locale_pointers@@@Z 000000018003ed68     libucrt:output.obj
 0004:00000d74       $pdata$??R<lambda_a31071773b9a94e445cbd5d04ef99106>@@QEBAHXZ 000000018003ed74     libucrt:output.obj
 0004:00000d80       $pdata$??R<lambda_a775ed57af18ba8e4d5dc780aa9068fe>@@QEBAHXZ 000000018003ed80     libucrt:output.obj
 0004:00000d8c       $pdata$?force_decimal_point@__crt_stdio_output@@YAXPEADQEAU__crt_locale_pointers@@@Z 000000018003ed8c     libucrt:output.obj
 0004:00000d98       $pdata$?parse_int_from_format_string@?$output_processor@DV?$stream_output_adapter@D@__crt_stdio_output@@V?$standard_base@DV?$stream_output_adapter@D@__crt_stdio_output@@@2@@__crt_stdio_output@@AEAA_NQEAH@Z 000000018003ed98     libucrt:output.obj
 0004:00000da4       $pdata$?parse_int_from_format_string@?$output_processor@_WV?$string_output_adapter@_W@__crt_stdio_output@@V?$standard_base@_WV?$string_output_adapter@_W@__crt_stdio_output@@@2@@__crt_stdio_output@@AEAA_NQEAH@Z 000000018003eda4     libucrt:output.obj
 0004:00000da4       $pdata$?parse_int_from_format_string@?$output_processor@_WV?$stream_output_adapter@_W@__crt_stdio_output@@V?$standard_base@_WV?$stream_output_adapter@_W@__crt_stdio_output@@@2@@__crt_stdio_output@@AEAA_NQEAH@Z 000000018003eda4     libucrt:output.obj
 0004:00000db0       $pdata$?process@?$output_processor@DV?$stream_output_adapter@D@__crt_stdio_output@@V?$standard_base@DV?$stream_output_adapter@D@__crt_stdio_output@@@2@@__crt_stdio_output@@QEAAHXZ 000000018003edb0     libucrt:output.obj
 0004:00000dbc       $pdata$?process@?$output_processor@_WV?$stream_output_adapter@_W@__crt_stdio_output@@V?$standard_base@_WV?$stream_output_adapter@_W@__crt_stdio_output@@@2@@__crt_stdio_output@@QEAAHXZ 000000018003edbc     libucrt:output.obj
 0004:00000dc8       $pdata$?process@?$output_processor@_WV?$string_output_adapter@_W@__crt_stdio_output@@V?$standard_base@_WV?$string_output_adapter@_W@__crt_stdio_output@@@2@@__crt_stdio_output@@QEAAHXZ 000000018003edc8     libucrt:output.obj
 0004:00000dd4       $pdata$?state_case_normal@?$output_processor@DV?$stream_output_adapter@D@__crt_stdio_output@@V?$standard_base@DV?$stream_output_adapter@D@__crt_stdio_output@@@2@@__crt_stdio_output@@AEAA_NXZ 000000018003edd4     libucrt:output.obj
 0004:00000de0       $pdata$?state_case_normal_tchar@?$output_processor@DV?$stream_output_adapter@D@__crt_stdio_output@@V?$standard_base@DV?$stream_output_adapter@D@__crt_stdio_output@@@2@@__crt_stdio_output@@AEAA_ND@Z 000000018003ede0     libucrt:output.obj
 0004:00000dec       $pdata$?state_case_size@?$output_processor@DV?$stream_output_adapter@D@__crt_stdio_output@@V?$standard_base@DV?$stream_output_adapter@D@__crt_stdio_output@@@2@@__crt_stdio_output@@AEAA_NXZ 000000018003edec     libucrt:output.obj
 0004:00000df8       $pdata$?state_case_size@?$output_processor@_WV?$stream_output_adapter@_W@__crt_stdio_output@@V?$standard_base@_WV?$stream_output_adapter@_W@__crt_stdio_output@@@2@@__crt_stdio_output@@AEAA_NXZ 000000018003edf8     libucrt:output.obj
 0004:00000e04       $pdata$?state_case_size@?$output_processor@_WV?$string_output_adapter@_W@__crt_stdio_output@@V?$standard_base@_WV?$string_output_adapter@_W@__crt_stdio_output@@@2@@__crt_stdio_output@@AEAA_NXZ 000000018003ee04     libucrt:output.obj
 0004:00000e10       $pdata$?state_case_type@?$output_processor@DV?$stream_output_adapter@D@__crt_stdio_output@@V?$standard_base@DV?$stream_output_adapter@D@__crt_stdio_output@@@2@@__crt_stdio_output@@AEAA_NXZ 000000018003ee10     libucrt:output.obj
 0004:00000e1c       $pdata$?state_case_type@?$output_processor@_WV?$stream_output_adapter@_W@__crt_stdio_output@@V?$standard_base@_WV?$stream_output_adapter@_W@__crt_stdio_output@@@2@@__crt_stdio_output@@AEAA_NXZ 000000018003ee1c     libucrt:output.obj
 0004:00000e28       $pdata$?state_case_type@?$output_processor@_WV?$string_output_adapter@_W@__crt_stdio_output@@V?$standard_base@_WV?$string_output_adapter@_W@__crt_stdio_output@@@2@@__crt_stdio_output@@AEAA_NXZ 000000018003ee28     libucrt:output.obj
 0004:00000e34       $pdata$?type_case_Z@?$output_processor@_WV?$stream_output_adapter@_W@__crt_stdio_output@@V?$standard_base@_WV?$stream_output_adapter@_W@__crt_stdio_output@@@2@@__crt_stdio_output@@AEAA_NXZ 000000018003ee34     libucrt:output.obj
 0004:00000e34       $pdata$?type_case_Z@?$output_processor@_WV?$string_output_adapter@_W@__crt_stdio_output@@V?$standard_base@_WV?$string_output_adapter@_W@__crt_stdio_output@@@2@@__crt_stdio_output@@AEAA_NXZ 000000018003ee34     libucrt:output.obj
 0004:00000e40       $pdata$?type_case_a@?$output_processor@DV?$stream_output_adapter@D@__crt_stdio_output@@V?$standard_base@DV?$stream_output_adapter@D@__crt_stdio_output@@@2@@__crt_stdio_output@@AEAA_NXZ 000000018003ee40     libucrt:output.obj
 0004:00000e4c       $pdata$?type_case_a@?$output_processor@_WV?$string_output_adapter@_W@__crt_stdio_output@@V?$standard_base@_WV?$string_output_adapter@_W@__crt_stdio_output@@@2@@__crt_stdio_output@@AEAA_NXZ 000000018003ee4c     libucrt:output.obj
 0004:00000e4c       $pdata$?type_case_a@?$output_processor@_WV?$stream_output_adapter@_W@__crt_stdio_output@@V?$standard_base@_WV?$stream_output_adapter@_W@__crt_stdio_output@@@2@@__crt_stdio_output@@AEAA_NXZ 000000018003ee4c     libucrt:output.obj
 0004:00000e58       $pdata$?type_case_c_tchar@?$output_processor@DV?$stream_output_adapter@D@__crt_stdio_output@@V?$standard_base@DV?$stream_output_adapter@D@__crt_stdio_output@@@2@@__crt_stdio_output@@AEAA_ND@Z 000000018003ee58     libucrt:output.obj
 0004:00000e64       $pdata$?type_case_c_tchar@?$output_processor@_WV?$stream_output_adapter@_W@__crt_stdio_output@@V?$standard_base@_WV?$stream_output_adapter@_W@__crt_stdio_output@@@2@@__crt_stdio_output@@AEAA_N_W@Z 000000018003ee64     libucrt:output.obj
 0004:00000e64       $pdata$?type_case_c_tchar@?$output_processor@_WV?$string_output_adapter@_W@__crt_stdio_output@@V?$standard_base@_WV?$string_output_adapter@_W@__crt_stdio_output@@@2@@__crt_stdio_output@@AEAA_N_W@Z 000000018003ee64     libucrt:output.obj
 0004:00000e70       $pdata$?type_case_integer@?$output_processor@DV?$stream_output_adapter@D@__crt_stdio_output@@V?$standard_base@DV?$stream_output_adapter@D@__crt_stdio_output@@@2@@__crt_stdio_output@@AEAA_NI_N@Z 000000018003ee70     libucrt:output.obj
 0004:00000e7c       $pdata$?type_case_integer@?$output_processor@_WV?$stream_output_adapter@_W@__crt_stdio_output@@V?$standard_base@_WV?$stream_output_adapter@_W@__crt_stdio_output@@@2@@__crt_stdio_output@@AEAA_NI_N@Z 000000018003ee7c     libucrt:output.obj
 0004:00000e7c       $pdata$?type_case_integer@?$output_processor@_WV?$string_output_adapter@_W@__crt_stdio_output@@V?$standard_base@_WV?$string_output_adapter@_W@__crt_stdio_output@@@2@@__crt_stdio_output@@AEAA_NI_N@Z 000000018003ee7c     libucrt:output.obj
 0004:00000e88       $pdata$?type_case_n@?$output_processor@DV?$stream_output_adapter@D@__crt_stdio_output@@V?$standard_base@DV?$stream_output_adapter@D@__crt_stdio_output@@@2@@__crt_stdio_output@@AEAA_NXZ 000000018003ee88     libucrt:output.obj
 0004:00000e88       $pdata$?type_case_n@?$output_processor@_WV?$stream_output_adapter@_W@__crt_stdio_output@@V?$standard_base@_WV?$stream_output_adapter@_W@__crt_stdio_output@@@2@@__crt_stdio_output@@AEAA_NXZ 000000018003ee88     libucrt:output.obj
 0004:00000e88       $pdata$?type_case_n@?$output_processor@_WV?$string_output_adapter@_W@__crt_stdio_output@@V?$standard_base@_WV?$string_output_adapter@_W@__crt_stdio_output@@@2@@__crt_stdio_output@@AEAA_NXZ 000000018003ee88     libucrt:output.obj
 0004:00000e94       $pdata$?type_case_s@?$output_processor@DV?$stream_output_adapter@D@__crt_stdio_output@@V?$standard_base@DV?$stream_output_adapter@D@__crt_stdio_output@@@2@@__crt_stdio_output@@AEAA_NXZ 000000018003ee94     libucrt:output.obj
 0004:00000ea0       $pdata$?type_case_s@?$output_processor@_WV?$string_output_adapter@_W@__crt_stdio_output@@V?$standard_base@_WV?$string_output_adapter@_W@__crt_stdio_output@@@2@@__crt_stdio_output@@AEAA_NXZ 000000018003eea0     libucrt:output.obj
 0004:00000ea0       $pdata$?type_case_s@?$output_processor@_WV?$stream_output_adapter@_W@__crt_stdio_output@@V?$standard_base@_WV?$stream_output_adapter@_W@__crt_stdio_output@@@2@@__crt_stdio_output@@AEAA_NXZ 000000018003eea0     libucrt:output.obj
 0004:00000eac       $pdata$?validate_stream_is_ansi_if_required@?$__acrt_stdio_char_traits@D@@SA_NQEAU_iobuf@@@Z 000000018003eeac     libucrt:output.obj
 0004:00000eb8       $pdata$?write_stored_string_tchar@?$output_processor@DV?$stream_output_adapter@D@__crt_stdio_output@@V?$standard_base@DV?$stream_output_adapter@D@__crt_stdio_output@@@2@@__crt_stdio_output@@AEAA_ND@Z 000000018003eeb8     libucrt:output.obj
 0004:00000ec4       $pdata$?write_stored_string_tchar@?$output_processor@_WV?$stream_output_adapter@_W@__crt_stdio_output@@V?$standard_base@_WV?$stream_output_adapter@_W@__crt_stdio_output@@@2@@__crt_stdio_output@@AEAA_N_W@Z 000000018003eec4     libucrt:output.obj
 0004:00000ed0       $pdata$?write_stored_string_tchar@?$output_processor@_WV?$string_output_adapter@_W@__crt_stdio_output@@V?$standard_base@_WV?$string_output_adapter@_W@__crt_stdio_output@@@2@@__crt_stdio_output@@AEAA_N_W@Z 000000018003eed0     libucrt:output.obj
 0004:00000edc       $pdata$?write_string@?$string_output_adapter@_W@__crt_stdio_output@@QEBAXQEB_WHQEAHAEAV__crt_deferred_errno_cache@@@Z 000000018003eedc     libucrt:output.obj
 0004:00000ee8       $pdata$?write_string_impl@?$output_adapter_common@DV?$stream_output_adapter@D@__crt_stdio_output@@@__crt_stdio_output@@IEBAXQEBDHQEAHAEAV__crt_deferred_errno_cache@@@Z 000000018003eee8     libucrt:output.obj
 0004:00000ef4       $pdata$?write_string_impl@?$output_adapter_common@_WV?$stream_output_adapter@_W@__crt_stdio_output@@@__crt_stdio_output@@IEBAXQEB_WHQEAHAEAV__crt_deferred_errno_cache@@@Z 000000018003eef4     libucrt:output.obj
 0004:00000f00       $pdata$__stdio_common_vfprintf 000000018003ef00     libucrt:output.obj
 0004:00000f0c       $pdata$__stdio_common_vfwprintf 000000018003ef0c     libucrt:output.obj
 0004:00000f18       $pdata$_stricmp            000000018003ef18     libucrt:stricmp.obj
 0004:00000f24       $pdata$_stricmp_l          000000018003ef24     libucrt:stricmp.obj
 0004:00000f30       $pdata$_initterm           000000018003ef30     libucrt:initterm.obj
 0004:00000f3c       $pdata$_initterm_e         000000018003ef3c     libucrt:initterm.obj
 0004:00000f48       $pdata$_callnewh           000000018003ef48     libucrt:new_handler.obj
 0004:00000f54       $pdata$_query_new_handler  000000018003ef54     libucrt:new_handler.obj
 0004:00000f60       $pdata$_seh_filter_exe     000000018003ef60     libucrt:exception_filter.obj
 0004:00000f6c       $pdata$??$?RV<lambda_d80eeec6fff315bfe5c115232f3240e3>@@AEAV<lambda_6e4b09c48022b2350581041d5f6b0c4c>@@V<lambda_2358e3775559c9db80273638284d5e45>@@@?$__crt_seh_guarded_call@X@@QEAAX$$QEAV<lambda_d80eeec6fff315bfe5c115232f3240e3>@@AEAV<lambda_6e4b09c48022b2350581041d5f6b0c4c>@@$$QEAV<lambda_2358e3775559c9db80273638284d5e45>@@@Z 000000018003ef6c     libucrt:exit.obj
 0004:00000f78       $pdata$??R<lambda_6e4b09c48022b2350581041d5f6b0c4c>@@QEBA@XZ 000000018003ef78     libucrt:exit.obj
 0004:00000f84       $pdata$?common_exit@@YAXHW4_crt_exit_cleanup_mode@@W4_crt_exit_return_mode@@@Z 000000018003ef84     libucrt:exit.obj
 0004:00000f90       $pdata$?exit_or_terminate_process@@YAXI@Z 000000018003ef90     libucrt:exit.obj
 0004:00000f9c       $pdata$?try_cor_exit_process@@YAXI@Z 000000018003ef9c     libucrt:exit.obj
 0004:00000fa8       $pdata$??$parse_command_line@D@@YAXPEADPEAPEAD0PEA_K2@Z 000000018003efa8     libucrt:argv_parsing.obj
 0004:00000fb4       $pdata$__acrt_allocate_buffer_for_argv 000000018003efb4     libucrt:argv_parsing.obj
 0004:00000fc0       $pdata$_configure_narrow_argv 000000018003efc0     libucrt:argv_parsing.obj
 0004:00000fcc       $pdata$??$common_initialize_environment_nolock@D@@YAHXZ 000000018003efcc     libucrt:environment_initialization.obj
 0004:00000fd8       $pdata$??$create_environment@D@@YAQEAPEADQEAD@Z 000000018003efd8     libucrt:environment_initialization.obj
 0004:00000fe4       $pdata$??$free_environment@_W@@YAXQEAPEA_W@Z 000000018003efe4     libucrt:environment_initialization.obj
 0004:00000fe4       $pdata$??$free_environment@D@@YAXQEAPEAD@Z 000000018003efe4     libucrt:environment_initialization.obj
 0004:00000ff0       $pdata$??$uninitialize_environment_internal@D@@YAXAEAPEAPEAD@Z 000000018003eff0     libucrt:environment_initialization.obj
 0004:00000ffc       $pdata$??$uninitialize_environment_internal@_W@@YAXAEAPEAPEA_W@Z 000000018003effc     libucrt:environment_initialization.obj
 0004:00001008       $pdata$__dcrt_uninitialize_environments_nolock 000000018003f008     libucrt:environment_initialization.obj
 0004:00001014       $pdata$??$?RV<lambda_7777bce6b2f8c936911f934f8298dc43>@@AEAV<lambda_f03950bc5685219e0bcd2087efbe011e>@@V<lambda_3883c3dff614d5e0c5f61bb1ac94921c>@@@?$__crt_seh_guarded_call@H@@QEAAH$$QEAV<lambda_7777bce6b2f8c936911f934f8298dc43>@@AEAV<lambda_f03950bc5685219e0bcd2087efbe011e>@@$$QEAV<lambda_3883c3dff614d5e0c5f61bb1ac94921c>@@@Z 000000018003f014     libucrt:onexit.obj
 0004:00001020       $pdata$??R<lambda_f03950bc5685219e0bcd2087efbe011e>@@QEBAHXZ 000000018003f020     libucrt:onexit.obj
 0004:0000102c       $pdata$_execute_onexit_table 000000018003f02c     libucrt:onexit.obj
 0004:00001038       $pdata$initialize_c        000000018003f038     libucrt:initialization.obj
 0004:00001044       $pdata$uninitialize_environment 000000018003f044     libucrt:initialization.obj
 0004:00001050       $pdata$initialize_pointers 000000018003f050     libucrt:initialization.obj
 0004:0000105c       $pdata$uninitialize_allocated_memory 000000018003f05c     libucrt:initialization.obj
 0004:00001068       $pdata$uninitialize_allocated_io_buffers 000000018003f068     libucrt:initialization.obj
 0004:00001074       $pdata$__acrt_thread_attach 000000018003f074     libucrt:initialization.obj
 0004:00001080       $pdata$__acrt_thread_detach 000000018003f080     libucrt:initialization.obj
 0004:0000108c       $pdata$__acrt_uninitialize 000000018003f08c     libucrt:initialization.obj
 0004:00001098       $pdata$__acrt_uninitialize_critical 000000018003f098     libucrt:initialization.obj
 0004:000010a4       $pdata$terminate           000000018003f0a4     libucrt:terminate.obj
 0004:000010b0       $pdata$strcpy_s            000000018003f0b0     libucrt:strcpy_s.obj
 0004:000010bc       $pdata$??$parse_integer@KV?$c_string_character_source@D@__crt_strtox@@@__crt_strtox@@YAKQEAU__crt_locale_pointers@@V?$c_string_character_source@D@0@H_N@Z 000000018003f0bc     libucrt:atox.obj
 0004:000010c8       $pdata$??$parse_integer@KV?$c_string_character_source@_W@__crt_strtox@@@__crt_strtox@@YAKQEAU__crt_locale_pointers@@V?$c_string_character_source@_W@0@H_N@Z 000000018003f0c8     libucrt:atox.obj
 0004:000010e0       $pdata$__acrt_call_reportfault 000000018003f0e0     libucrt:invalid_parameter.obj
 0004:000010ec       $pdata$_invalid_parameter  000000018003f0ec     libucrt:invalid_parameter.obj
 0004:000010f8       $pdata$_invalid_parameter_noinfo 000000018003f0f8     libucrt:invalid_parameter.obj
 0004:00001104       $pdata$_invoke_watson      000000018003f104     libucrt:invalid_parameter.obj
 0004:00001110       $pdata$__acrt_errno_map_os_error 000000018003f110     libucrt:errno.obj
 0004:0000111c       $pdata$__doserrno          000000018003f11c     libucrt:errno.obj
 0004:00001128       $pdata$_errno              000000018003f128     libucrt:errno.obj
 0004:00001134       $pdata$??$common_xtox@K_W@@YAHKQEA_W_KI_N@Z 000000018003f134     libucrt:xtoa.obj
 0004:00001140       $pdata$??$common_xtox_s@K_W@@YAHKQEA_W_KI_N@Z 000000018003f140     libucrt:xtoa.obj
 0004:0000114c       $pdata$_itow_s             000000018003f14c     libucrt:xtoa.obj
 0004:00001158       $pdata$_set_error_mode     000000018003f158     libucrt:set_error_mode.obj
 0004:00001164       $pdata$wcscat_s            000000018003f164     libucrt:wcscat_s.obj
 0004:00001170       $pdata$wcscpy_s            000000018003f170     libucrt:wcscpy_s.obj
 0004:0000117c       $pdata$wcsncat_s           000000018003f17c     libucrt:wcsncat_s.obj
 0004:00001188       $pdata$__acrt_GetModuleFileNameA 000000018003f188     libucrt:getmodulefilenamea.obj
 0004:00001194       $pdata$__acrt_show_wide_message_box 000000018003f194     libucrt:crtmbox.obj
 0004:000011a0       $pdata$??$?RV<lambda_842d9ff0dc9ef11c61343bbaebe7f885>@@AEAV<lambda_c5860995281e5c4ce005b3de8f5874ee>@@V<lambda_d90129c13df834fdcbf8d2b88dafcf2d>@@@?$__crt_seh_guarded_call@X@@QEAAX$$QEAV<lambda_842d9ff0dc9ef11c61343bbaebe7f885>@@AEAV<lambda_c5860995281e5c4ce005b3de8f5874ee>@@$$QEAV<lambda_d90129c13df834fdcbf8d2b88dafcf2d>@@@Z 000000018003f1a0     libucrt:fflush.obj
 0004:000011ac       $pdata$??$?RV<lambda_886d6c58226a84441f68b9f2b8217b83>@@AEAV<lambda_ab61a845afdef5b7c387490eaf3616ee>@@V<lambda_f7f22ab5edc0698d5f6905b0d3f44752>@@@?$__crt_seh_guarded_call@X@@QEAAX$$QEAV<lambda_886d6c58226a84441f68b9f2b8217b83>@@AEAV<lambda_ab61a845afdef5b7c387490eaf3616ee>@@$$QEAV<lambda_f7f22ab5edc0698d5f6905b0d3f44752>@@@Z 000000018003f1ac     libucrt:fflush.obj
 0004:000011b8       $pdata$??$?RV<lambda_c376a267cfb53b6959b3b692ec76b120>@@AEAV<lambda_9a32fed5bf61b6b509b2d3f6003082a1>@@V<lambda_572fbb9fa0ab338edf41edfd4b5fcc8d>@@@?$__crt_seh_guarded_call@H@@QEAAH$$QEAV<lambda_c376a267cfb53b6959b3b692ec76b120>@@AEAV<lambda_9a32fed5bf61b6b509b2d3f6003082a1>@@$$QEAV<lambda_572fbb9fa0ab338edf41edfd4b5fcc8d>@@@Z 000000018003f1b8     libucrt:fflush.obj
 0004:000011c4       $pdata$?common_flush_all@@YAH_N@Z 000000018003f1c4     libucrt:fflush.obj
 0004:000011d0       $pdata$__acrt_stdio_flush_nolock 000000018003f1d0     libucrt:fflush.obj
 0004:000011dc       $pdata$_fflush_nolock      000000018003f1dc     libucrt:fflush.obj
 0004:000011e8       $pdata$fflush              000000018003f1e8     libucrt:fflush.obj
 0004:000011f4       $pdata$??$?RV<lambda_84ec643ea9557e2f7dc01bb0e9624395>@@AEAV<lambda_ca71763b3c0644891230e4f79ea54fa6>@@V<lambda_439a761618c59b0600e24586724d733b>@@@?$__crt_seh_guarded_call@H@@QEAAH$$QEAV<lambda_84ec643ea9557e2f7dc01bb0e9624395>@@AEAV<lambda_ca71763b3c0644891230e4f79ea54fa6>@@$$QEAV<lambda_439a761618c59b0600e24586724d733b>@@@Z 000000018003f1f4     libucrt:setvbuf.obj
 0004:00001200       $pdata$??R<lambda_ca71763b3c0644891230e4f79ea54fa6>@@QEBAHXZ 000000018003f200     libucrt:setvbuf.obj
 0004:0000120c       $pdata$setvbuf             000000018003f20c     libucrt:setvbuf.obj
 0004:00001218       $pdata$??$?RV<lambda_450d765d439847d4c735a33c368b5fc0>@@AEAV<lambda_44731a7d0e6d81c3e6aa82d741081786>@@V<lambda_601a2a7da3b7a96e9554ac7215c4b07c>@@@?$__crt_seh_guarded_call@P6AXH@Z@@QEAAP6AXH@Z$$QEAV<lambda_450d765d439847d4c735a33c368b5fc0>@@AEAV<lambda_44731a7d0e6d81c3e6aa82d741081786>@@$$QEAV<lambda_601a2a7da3b7a96e9554ac7215c4b07c>@@@Z 000000018003f218     libucrt:signal.obj
 0004:00001224       $pdata$__acrt_get_sigabrt_handler 000000018003f224     libucrt:signal.obj
 0004:00001230       $pdata$raise               000000018003f230     libucrt:signal.obj
 0004:0000123c       $pdata$_calloc_base        000000018003f23c     libucrt:calloc_base.obj
 0004:00001248       $pdata$_free_base          000000018003f248     libucrt:free_base.obj
 0004:00001254       $pdata$?try_get_function@@YAPEAXW4function_id@?A0x391cf84c@@QEBDQEBW4module_id@2@2@Z 000000018003f254     libucrt:winapi_thunks.obj
 0004:00001260       $pdata$__acrt_AppPolicyGetProcessTerminationMethodInternal 000000018003f260     libucrt:winapi_thunks.obj
 0004:0000126c       $pdata$__acrt_AppPolicyGetShowDeveloperDiagnosticInternal 000000018003f26c     libucrt:winapi_thunks.obj
 0004:00001278       $pdata$__acrt_AppPolicyGetWindowingModelInternal 000000018003f278     libucrt:winapi_thunks.obj
 0004:00001284       $pdata$__acrt_FlsAlloc     000000018003f284     libucrt:winapi_thunks.obj
 0004:00001290       $pdata$__acrt_FlsFree      000000018003f290     libucrt:winapi_thunks.obj
 0004:0000129c       $pdata$__acrt_FlsGetValue  000000018003f29c     libucrt:winapi_thunks.obj
 0004:000012a8       $pdata$__acrt_FlsSetValue  000000018003f2a8     libucrt:winapi_thunks.obj
 0004:000012b4       $pdata$__acrt_InitializeCriticalSectionEx 000000018003f2b4     libucrt:winapi_thunks.obj
 0004:000012c0       $pdata$__acrt_LCMapStringEx 000000018003f2c0     libucrt:winapi_thunks.obj
 0004:000012cc       $pdata$__acrt_LocaleNameToLCID 000000018003f2cc     libucrt:winapi_thunks.obj
 0004:000012d8       $pdata$__acrt_MessageBoxW  000000018003f2d8     libucrt:winapi_thunks.obj
 0004:000012e4       $pdata$__acrt_can_show_message_box 000000018003f2e4     libucrt:winapi_thunks.obj
 0004:000012f0       $pdata$__acrt_get_parent_window 000000018003f2f0     libucrt:winapi_thunks.obj
 0004:000012fc       $pdata$__acrt_initialize_winapi_thunks 000000018003f2fc     libucrt:winapi_thunks.obj
 0004:00001308       $pdata$__acrt_is_interactive 000000018003f308     libucrt:winapi_thunks.obj
 0004:00001314       $pdata$__acrt_uninitialize_winapi_thunks 000000018003f314     libucrt:winapi_thunks.obj
 0004:00001320       $pdata$_fcloseall          000000018003f320     libucrt:closeall.obj
 0004:0000132c       $pdata$__acrt_stdio_free_buffer_nolock 000000018003f32c     libucrt:_freebuf.obj
 0004:00001338       $pdata$?initialize_inherited_file_handles_nolock@@YAXXZ 000000018003f338     libucrt:ioinit.obj
 0004:00001344       $pdata$?initialize_stdio_handles_nolock@@YAXXZ 000000018003f344     libucrt:ioinit.obj
 0004:00001350       $pdata$__acrt_initialize_lowio 000000018003f350     libucrt:ioinit.obj
 0004:0000135c       $pdata$__acrt_uninitialize_lowio 000000018003f35c     libucrt:ioinit.obj
 0004:00001368       $pdata$isdigit             000000018003f368     libucrt:_ctype.obj
 0004:00001374       $pdata$?internal_isupper_l@@YA_NHQEAU__crt_locale_pointers@@@Z 000000018003f374     libucrt:tolower_toupper.obj
 0004:00001380       $pdata$_tolower_l          000000018003f380     libucrt:tolower_toupper.obj
 0004:0000138c       $pdata$tolower             000000018003f38c     libucrt:tolower_toupper.obj
 0004:00001398       $pdata$_malloc_base        000000018003f398     libucrt:malloc_base.obj
 0004:000013a4       $pdata$strtol              000000018003f3a4     libucrt:strtox.obj
 0004:000013b0       $pdata$wcstol              000000018003f3b0     libucrt:strtox.obj
 0004:000013bc       $pdata$_mbtowc_l           000000018003f3bc     libucrt:mbtowc.obj
 0004:000013c8       $pdata$_wctomb_s_l         000000018003f3c8     libucrt:wctomb.obj
 0004:000013d4       $pdata$wctomb_s            000000018003f3d4     libucrt:wctomb.obj
 0004:000013e0       $pdata$??$?RV<lambda_0ae27a3a962d80f24befdcbee591983d>@@AEAV<lambda_8d0ee55de4b1038c4002e0adecdf1839>@@V<lambda_dc504788e8f1664fe9b84e20bfb512f2>@@@?$__crt_seh_guarded_call@X@@QEAAX$$QEAV<lambda_0ae27a3a962d80f24befdcbee591983d>@@AEAV<lambda_8d0ee55de4b1038c4002e0adecdf1839>@@$$QEAV<lambda_dc504788e8f1664fe9b84e20bfb512f2>@@@Z 000000018003f3e0     libucrt:per_thread_data.obj
 0004:000013ec       $pdata$??$?RV<lambda_2d41944a1d46af3157314b8a01080d33>@@AEAV<lambda_8f455de75cd7d7f24b4096f044d8b9e6>@@V<lambda_aa500f224e6afead328df44964fe2772>@@@?$__crt_seh_guarded_call@X@@QEAAX$$QEAV<lambda_2d41944a1d46af3157314b8a01080d33>@@AEAV<lambda_8f455de75cd7d7f24b4096f044d8b9e6>@@$$QEAV<lambda_aa500f224e6afead328df44964fe2772>@@@Z 000000018003f3ec     libucrt:per_thread_data.obj
 0004:000013f8       $pdata$??$?RV<lambda_aa87e3671a710a21b5dc78c0bdf72e11>@@AEAV<lambda_92619d2358a28f41a33ba319515a20b9>@@V<lambda_6992ecaafeb10aed2b74cb1fae11a551>@@@?$__crt_seh_guarded_call@X@@QEAAX$$QEAV<lambda_aa87e3671a710a21b5dc78c0bdf72e11>@@AEAV<lambda_92619d2358a28f41a33ba319515a20b9>@@$$QEAV<lambda_6992ecaafeb10aed2b74cb1fae11a551>@@@Z 000000018003f3f8     libucrt:per_thread_data.obj
 0004:00001404       $pdata$??$?RV<lambda_f2e299630e499de9f9a165e60fcd3db5>@@AEAV<lambda_2ae9d31cdba2644fcbeaf08da7c24588>@@V<lambda_40d01ff24d0e7b3814fdbdcee8eab3c7>@@@?$__crt_seh_guarded_call@X@@QEAAX$$QEAV<lambda_f2e299630e499de9f9a165e60fcd3db5>@@AEAV<lambda_2ae9d31cdba2644fcbeaf08da7c24588>@@$$QEAV<lambda_40d01ff24d0e7b3814fdbdcee8eab3c7>@@@Z 000000018003f404     libucrt:per_thread_data.obj
 0004:00001410       $pdata$?construct_ptd_array@@YAXQEAU__acrt_ptd@@@Z 000000018003f410     libucrt:per_thread_data.obj
 0004:0000141c       $pdata$?destroy_fls@@YAXPEAX@Z 000000018003f41c     libucrt:per_thread_data.obj
 0004:00001428       $pdata$?destroy_ptd_array@@YAXQEAU__acrt_ptd@@@Z 000000018003f428     libucrt:per_thread_data.obj
 0004:00001434       $pdata$?replace_current_thread_locale_nolock@@YAXQEAU__acrt_ptd@@QEAU__crt_locale_data@@@Z 000000018003f434     libucrt:per_thread_data.obj
 0004:00001440       $pdata$__acrt_freeptd      000000018003f440     libucrt:per_thread_data.obj
 0004:0000144c       $pdata$__acrt_getptd       000000018003f44c     libucrt:per_thread_data.obj
 0004:00001458       $pdata$__acrt_getptd_head  000000018003f458     libucrt:per_thread_data.obj
 0004:00001464       $pdata$__acrt_getptd_noexit 000000018003f464     libucrt:per_thread_data.obj
 0004:00001470       $pdata$__acrt_initialize_ptd 000000018003f470     libucrt:per_thread_data.obj
 0004:0000147c       $pdata$__acrt_uninitialize_ptd 000000018003f47c     libucrt:per_thread_data.obj
 0004:00001488       $pdata$__acrt_update_locale_info 000000018003f488     libucrt:locale_update.obj
 0004:00001494       $pdata$__acrt_update_multibyte_info 000000018003f494     libucrt:locale_update.obj
 0004:000014a0       $pdata$?fp_format_a@@YAHQEBNPEAD_KQEAD2H_NIQEAU__crt_locale_pointers@@@Z 000000018003f4a0     libucrt:cvt.obj
 0004:000014ac       $pdata$?fp_format_e@@YAHQEBNQEAD_K12H_NIQEAU__crt_locale_pointers@@@Z 000000018003f4ac     libucrt:cvt.obj
 0004:000014b8       $pdata$?fp_format_e_internal@@YAHQEAD_KH_NIQEAU_strflt@@2QEAU__crt_locale_pointers@@@Z 000000018003f4b8     libucrt:cvt.obj
 0004:000014c4       $pdata$?fp_format_f_internal@@YAHQEAD_KHQEAU_strflt@@_NQEAU__crt_locale_pointers@@@Z 000000018003f4c4     libucrt:cvt.obj
 0004:000014d0       $pdata$?fp_format_g@@YAHQEBNQEAD_K12H_NIQEAU__crt_locale_pointers@@@Z 000000018003f4d0     libucrt:cvt.obj
 0004:000014dc       $pdata$?fp_format_nan_or_infinity@@YAHW4__acrt_fp_class@@_NPEAD_K1@Z 000000018003f4dc     libucrt:cvt.obj
 0004:000014e8       $pdata$__acrt_fp_format    000000018003f4e8     libucrt:cvt.obj
 0004:000014f4       $pdata$_fputwc_nolock      000000018003f4f4     libucrt:fputwc.obj
 0004:00001500       $pdata$_fileno             000000018003f500     libucrt:fileno.obj
 0004:0000150c       $pdata$__acrt_stdio_begin_temporary_buffering_nolock 000000018003f50c     libucrt:_sftbuf.obj
 0004:00001518       $pdata$__acrt_stdio_end_temporary_buffering_nolock 000000018003f518     libucrt:_sftbuf.obj
 0004:00001524       $pdata$??$?RV<lambda_410d79af7f07d98d83a3f525b3859a53>@@AEAV<lambda_3e16ef9562a7dcce91392c22ab16ea36>@@V<lambda_38119f0e861e05405d8a144b9b982f0a>@@@?$__crt_seh_guarded_call@X@@QEAAX$$QEAV<lambda_410d79af7f07d98d83a3f525b3859a53>@@AEAV<lambda_3e16ef9562a7dcce91392c22ab16ea36>@@$$QEAV<lambda_38119f0e861e05405d8a144b9b982f0a>@@@Z 000000018003f524     libucrt:wsetlocale.obj
 0004:00001530       $pdata$__acrt_uninitialize_locale 000000018003f530     libucrt:wsetlocale.obj
 0004:0000153c       $pdata$__acrt_initialize_locks 000000018003f53c     libucrt:locks.obj
 0004:00001548       $pdata$__acrt_uninitialize_locks 000000018003f548     libucrt:locks.obj
 0004:00001554       $pdata$__acrt_get_developer_information_policy 000000018003f554     libucrt:win_policies.obj
 0004:00001560       $pdata$__acrt_get_process_end_policy 000000018003f560     libucrt:win_policies.obj
 0004:0000156c       $pdata$__acrt_get_windowing_model_policy 000000018003f56c     libucrt:win_policies.obj
 0004:00001578       $pdata$??$common_expand_argv_wildcards@D@@YAHQEAPEADQEAPEAPEAD@Z 000000018003f578     libucrt:argv_wildcards.obj
 0004:00001584       $pdata$??$copy_and_add_argument_to_buffer@D@@YAHQEBD0_KAEAV?$argument_list@D@?A0x5f5c8891@@@Z 000000018003f584     libucrt:argv_wildcards.obj
 0004:00001590       $pdata$??$expand_argument_wildcards@D@@YAHQEAD0AEAV?$argument_list@D@?A0x5f5c8891@@@Z 000000018003f590     libucrt:argv_wildcards.obj
 0004:0000159c       $pdata$??$?RV<lambda_efdfa57d1f175319df784efa44bb7b81>@@AEAV<lambda_5f0a4c1567f8adc6734073e5d1e1b35c>@@V<lambda_2e8a7d3640ea6ccb4c2413664c2db6fd>@@@?$__crt_seh_guarded_call@X@@QEAAX$$QEAV<lambda_efdfa57d1f175319df784efa44bb7b81>@@AEAV<lambda_5f0a4c1567f8adc6734073e5d1e1b35c>@@$$QEAV<lambda_2e8a7d3640ea6ccb4c2413664c2db6fd>@@@Z 000000018003f59c     libucrt:mbctype.obj
 0004:000015a8       $pdata$?getSystemCP@@YAHH@Z 000000018003f5a8     libucrt:mbctype.obj
 0004:000015b4       $pdata$?setSBCS@@YAXPEAU__crt_multibyte_data@@@Z 000000018003f5b4     libucrt:mbctype.obj
 0004:000015c0       $pdata$?setSBUpLow@@YAXPEAU__crt_multibyte_data@@@Z 000000018003f5c0     libucrt:mbctype.obj
 0004:000015cc       $pdata$?setmbcp_internal@@YAHH_NQEAU__acrt_ptd@@QEAPEAU__crt_multibyte_data@@@Z 000000018003f5cc     libucrt:mbctype.obj
 0004:000015d8       $pdata$?update_thread_multibyte_data_internal@@YAPEAU__crt_multibyte_data@@QEAU__acrt_ptd@@QEAPEAU1@@Z 000000018003f5d8     libucrt:mbctype.obj
 0004:000015e4       $pdata$__acrt_initialize_multibyte 000000018003f5e4     libucrt:mbctype.obj
 0004:000015f0       $pdata$__acrt_update_thread_multibyte_data 000000018003f5f0     libucrt:mbctype.obj
 0004:000015fc       $pdata$_setmbcp_nolock     000000018003f5fc     libucrt:mbctype.obj
 0004:00001608       $pdata$?x_ismbbtype_l@@YAHPEAU__crt_locale_pointers@@IHH@Z 000000018003f608     libucrt:ismbbyte.obj
 0004:00001614       $pdata$__acrt_initialize_command_line 000000018003f614     libucrt:argv_data.obj
 0004:00001620       $pdata$__acrt_WideCharToMultiByte 000000018003f620     libucrt:widechartomultibyte.obj
 0004:0000162c       $pdata$__dcrt_get_narrow_environment_from_os 000000018003f62c     libucrt:get_environment_from_os.obj
 0004:00001638       $pdata$_recalloc_base      000000018003f638     libucrt:recalloc.obj
 0004:00001644       $pdata$__acrt_initialize_heap 000000018003f644     libucrt:heap_handle.obj
 0004:00001650       $pdata$__acrt_execute_initializers 000000018003f650     libucrt:shared_initialization.obj
 0004:0000165c       $pdata$__acrt_execute_uninitializers 000000018003f65c     libucrt:shared_initialization.obj
 0004:00001668       $pdata$__pctype_func       000000018003f668     libucrt:ctype.obj
 0004:00001674       $pdata$iswctype            000000018003f674     libucrt:iswctype.obj
 0004:00001680       $pdata$_isctype_l          000000018003f680     libucrt:isctype.obj
 0004:0000168c       $pdata$?_mbstowcs_l_helper@@YA_KPEA_WPEBD_KPEAU__crt_locale_pointers@@@Z 000000018003f68c     libucrt:mbstowcs.obj
 0004:00001698       $pdata$??$?RV<lambda_a37b2b86f63e897a80ea819b0eb08c01>@@AEAV<lambda_38ce7e780aa69e748d6df282ebc68efe>@@V<lambda_99fb1378e971ab6e7edea83e3a7a83a2>@@@?$__crt_seh_guarded_call@H@@QEAAH$$QEAV<lambda_a37b2b86f63e897a80ea819b0eb08c01>@@AEAV<lambda_38ce7e780aa69e748d6df282ebc68efe>@@$$QEAV<lambda_99fb1378e971ab6e7edea83e3a7a83a2>@@@Z 000000018003f698     libucrt:commit.obj
 0004:000016a4       $pdata$_commit             000000018003f6a4     libucrt:commit.obj
 0004:000016b0       $pdata$?write_double_translated_ansi_nolock@@YA?AUwrite_result@?A0x17268360@@HQEBDI@Z 000000018003f6b0     libucrt:write.obj
 0004:000016bc       $pdata$?write_text_ansi_nolock@@YA?AUwrite_result@?A0x17268360@@HQEBDI@Z 000000018003f6bc     libucrt:write.obj
 0004:000016c8       $pdata$?write_text_utf16le_nolock@@YA?AUwrite_result@?A0x17268360@@HQEBDI@Z 000000018003f6c8     libucrt:write.obj
 0004:000016d4       $pdata$?write_text_utf8_nolock@@YA?AUwrite_result@?A0x17268360@@HQEBDI@Z 000000018003f6d4     libucrt:write.obj
 0004:000016e0       $pdata$_write              000000018003f6e0     libucrt:write.obj
 0004:000016ec       $pdata$_write_nolock       000000018003f6ec     libucrt:write.obj
 0004:000016f8       $pdata$?GetTableIndexFromLocaleName@@YAHPEB_W@Z 000000018003f6f8     libucrt:lcidtoname_downlevel.obj
 0004:00001704       $pdata$__acrt_DownlevelLocaleNameToLCID 000000018003f704     libucrt:lcidtoname_downlevel.obj
 0004:00001710       $pdata$_fclose_nolock      000000018003f710     libucrt:fclose.obj
 0004:0000171c       $pdata$fclose              000000018003f71c     libucrt:fclose.obj
 0004:00001728       $pdata$__acrt_lowio_create_handle_array 000000018003f728     libucrt:osfinfo.obj
 0004:00001734       $pdata$__acrt_lowio_destroy_handle_array 000000018003f734     libucrt:osfinfo.obj
 0004:00001740       $pdata$__acrt_lowio_ensure_fh_exists 000000018003f740     libucrt:osfinfo.obj
 0004:0000174c       $pdata$_free_osfhnd        000000018003f74c     libucrt:osfinfo.obj
 0004:00001758       $pdata$_get_osfhandle      000000018003f758     libucrt:osfinfo.obj
 0004:00001764       $pdata$_isleadbyte_l       000000018003f764     libucrt:_wctype.obj
 0004:00001770       $pdata$?__acrt_LCMapStringA_stat@@YAHPEAU__crt_locale_pointers@@PEB_WKPEBDHPEADHHH@Z 000000018003f770     libucrt:lcmapstringa.obj
 0004:0000177c       $pdata$__acrt_LCMapStringA 000000018003f77c     libucrt:lcmapstringa.obj
 0004:00001788       $pdata$?__mbrtowc_utf8@__crt_mbstring@@YA_KPEA_WPEBD_KPEAU_Mbstatet@@@Z 000000018003f788     libucrt:mbrtowc.obj
 0004:00001794       $pdata$?__mbsrtowcs_utf8@__crt_mbstring@@YA_KPEA_WPEAPEBD_KPEAU_Mbstatet@@@Z 000000018003f794     libucrt:mbrtowc.obj
 0004:000017a0       $pdata$__acrt_free_locale  000000018003f7a0     libucrt:locale_refcounting.obj
 0004:000017ac       $pdata$__acrt_locale_free_lc_time_if_unreferenced 000000018003f7ac     libucrt:locale_refcounting.obj
 0004:000017b8       $pdata$__acrt_release_locale_ref 000000018003f7b8     libucrt:locale_refcounting.obj
 0004:000017c4       $pdata$__acrt_update_thread_locale_data 000000018003f7c4     libucrt:locale_refcounting.obj
 0004:000017d0       $pdata$_updatetlocinfoEx_nolock 000000018003f7d0     libucrt:locale_refcounting.obj
 0004:000017dc       $pdata$__acrt_fp_strflt_to_string 000000018003f7dc     libucrt:_fptostr.obj
 0004:000017e8       $pdata$?divide@__crt_strtox@@YA_KAEAUbig_integer@1@AEBU21@@Z 000000018003f7e8     libucrt:cfout.obj
 0004:000017f4       $pdata$0$?divide@__crt_strtox@@YA_KAEAUbig_integer@1@AEBU21@@Z 000000018003f7f4     libucrt:cfout.obj
 0004:00001800       $pdata$6$?divide@__crt_strtox@@YA_KAEAUbig_integer@1@AEBU21@@Z 000000018003f800     libucrt:cfout.obj
 0004:0000180c       $pdata$7$?divide@__crt_strtox@@YA_KAEAUbig_integer@1@AEBU21@@Z 000000018003f80c     libucrt:cfout.obj
 0004:00001818       $pdata$8$?divide@__crt_strtox@@YA_KAEAUbig_integer@1@AEBU21@@Z 000000018003f818     libucrt:cfout.obj
 0004:00001824       $pdata$__acrt_fltout       000000018003f824     libucrt:cfout.obj
 0004:00001830       $pdata$memcpy_s            000000018003f830     libucrt:cfout.obj
 0004:0000183c       $pdata$??$write_buffer_nolock@D@@YA_NDV__crt_stdio_stream@@@Z 000000018003f83c     libucrt:_flsbuf.obj
 0004:00001848       $pdata$??$write_buffer_nolock@_W@@YA_N_WV__crt_stdio_stream@@@Z 000000018003f848     libucrt:_flsbuf.obj
 0004:00001854       $pdata$__acrt_stdio_flush_and_write_narrow_nolock 000000018003f854     libucrt:_flsbuf.obj
 0004:00001860       $pdata$__acrt_stdio_flush_and_write_wide_nolock 000000018003f860     libucrt:_flsbuf.obj
 0004:0000186c       $pdata$_isatty             000000018003f86c     libucrt:isatty.obj
 0004:00001878       $pdata$__acrt_locale_free_monetary 000000018003f878     libucrt:initmon.obj
 0004:00001884       $pdata$__acrt_locale_free_numeric 000000018003f884     libucrt:initnum.obj
 0004:00001890       $pdata$?free_crt_array_internal@@YAXQEAPEBX_K@Z 000000018003f890     libucrt:inittime.obj
 0004:0000189c       $pdata$__acrt_locale_free_time 000000018003f89c     libucrt:inittime.obj
 0004:000018a8       $pdata$__acrt_GetStringTypeA 000000018003f8a8     libucrt:getstringtypea.obj
 0004:000018b4       $pdata$qsort               000000018003f8b4     libucrt:qsort.obj
 0004:000018c0       $pdata$4$qsort             000000018003f8c0     libucrt:qsort.obj
 0004:000018cc       $pdata$5$qsort             000000018003f8cc     libucrt:qsort.obj
 0004:000018d8       $pdata$strncpy_s           000000018003f8d8     libucrt:strncpy_s.obj
 0004:000018e4       $pdata$fallbackMethod      000000018003f8e4     libucrt:strpbrk.obj
 0004:000018f0       $pdata$strpbrk             000000018003f8f0     libucrt:strpbrk.obj
 0004:000018fc       $pdata$??$__acrt_convert_wcs_mbs@D_W$$A6A_KPEA_WPEBD_KPEAU__crt_locale_pointers@@@ZU__crt_win32_buffer_internal_dynamic_resizing@@@@YAHQEBDAEAV?$__crt_win32_buffer@_WU__crt_win32_buffer_internal_dynamic_resizing@@@@A6A_KPEA_WPEBD_KPEAU__crt_locale_pointers@@@Z5@Z 000000018003f8fc     libucrt:findfirstfileexa.obj
 0004:00001908       $pdata$__acrt_FindFirstFileExA 000000018003f908     libucrt:findfirstfileexa.obj
 0004:00001914       $pdata$??$__acrt_convert_wcs_mbs@_WD$$A6A_KPEADPEB_W_KPEAU__crt_locale_pointers@@@ZU__crt_win32_buffer_no_resizing@@@@YAHQEB_WAEAV?$__crt_win32_buffer@DU__crt_win32_buffer_no_resizing@@@@A6A_KPEADPEB_W_KPEAU__crt_locale_pointers@@@Z5@Z 000000018003f914     libucrt:findnextfilea.obj
 0004:00001920       $pdata$__acrt_FindNextFileA 000000018003f920     libucrt:findnextfilea.obj
 0004:0000192c       $pdata$_mbsdec_l           000000018003f92c     libucrt:mbsdec.obj
 0004:00001938       $pdata$?initialize_multibyte@@YAHXZ 000000018003f938     libucrt:multibyte_initializer.obj
 0004:00001944       $pdata$_msize_base         000000018003f944     libucrt:msize.obj
 0004:00001950       $pdata$_realloc_base       000000018003f950     libucrt:realloc_base.obj
 0004:0000195c       $pdata$??$common_lseek@_J@@YA_JH_JH@Z 000000018003f95c     libucrt:lseek.obj
 0004:00001968       $pdata$??$common_lseek_nolock@_J@@YA_JH_JH@Z 000000018003f968     libucrt:lseek.obj
 0004:00001974       $pdata$_putwch_nolock      000000018003f974     libucrt:putwch.obj
 0004:00001980       $pdata$??$?RV<lambda_751a882b2c74d4b022dec766aa51a29a>@@AEAV<lambda_628dfdc04ba53c8bfc02c9951375f3f5>@@V<lambda_f6c7be5f7998530c34de24c7437d6b54>@@@?$__crt_seh_guarded_call@H@@QEAAH$$QEAV<lambda_751a882b2c74d4b022dec766aa51a29a>@@AEAV<lambda_628dfdc04ba53c8bfc02c9951375f3f5>@@$$QEAV<lambda_f6c7be5f7998530c34de24c7437d6b54>@@@Z 000000018003f980     libucrt:close.obj
 0004:0000198c       $pdata$_close              000000018003f98c     libucrt:close.obj
 0004:00001998       $pdata$_close_nolock       000000018003f998     libucrt:close.obj
 0004:000019a4       $pdata$?__mbrtoc32_utf8@__crt_mbstring@@YA_KPEA_UPEBD_KPEAU_Mbstatet@@@Z 000000018003f9a4     libucrt:mbrtoc32.obj
 0004:000019b0       $pdata$fegetenv            000000018003f9b0     libucrt:fegetenv.obj
 0004:000019bc       $pdata$fesetenv            000000018003f9bc     libucrt:fesetenv.obj
 0004:000019c8       $pdata$feholdexcept        000000018003f9c8     libucrt:feholdexcept.obj
 0004:000019e0       $pdata$__acrt_stdio_allocate_buffer_nolock 000000018003f9e0     libucrt:_getbuf.obj
 0004:000019ec       $pdata$?_wcstombs_l_helper@@YA_KPEADPEB_W_KPEAU__crt_locale_pointers@@@Z 000000018003f9ec     libucrt:wcstombs.obj
 0004:000019f8       $pdata$__dcrt_lowio_ensure_console_output_initialized 000000018003f9f8     libucrt:initcon.obj
 0004:00001a04       $pdata$__dcrt_terminate_console_output 000000018003fa04     libucrt:initcon.obj
 0004:00001a10       $pdata$__dcrt_write_console 000000018003fa10     libucrt:initcon.obj
 0004:00001a1c       $pdata$__acrt_fenv_set_control 000000018003fa1c     libucrt:_fenvutils.obj
 0004:00001a28       $pdata$_clearfp            000000018003fa28     libucrt:ieee.obj
 0004:00001a34       $pdata$_call_matherr       000000018003fa34     libucrt:libm_error.obj
 0004:00001a40       $pdata$_exception_enabled  000000018003fa40     libucrt:libm_error.obj
 0004:00001a4c       $pdata$_handle_error       000000018003fa4c     libucrt:libm_error.obj
 0004:00001a58       $pdata$__acrt_initialize_fma3 000000018003fa58     libucrt:fma3_available.obj
 0004:00001a64       $pdata$_log10_special      000000018003fa64     libucrt:log_special.obj
 0004:00001a70       $pdata$_log_special_common 000000018003fa70     libucrt:log_special.obj
 0004:00001a7c       $pdata$?__wcsrtombs_utf8@__crt_mbstring@@YA_KPEADPEAPEB_W_KPEAU_Mbstatet@@@Z 000000018003fa7c     libucrt:wcrtomb.obj
 0004:00001a94       $pdata$_raise_exc          000000018003fa94     libucrt:fpexcept.obj
 0004:00001aa0       $pdata$_raise_exc_ex       000000018003faa0     libucrt:fpexcept.obj
 0004:00001aac       $pdata$_set_errno_from_matherr 000000018003faac     libucrt:fpexcept.obj
 0004:00001ab8       $pdata$_clrfp              000000018003fab8     libucrt:fpctrl.obj
 0004:00001ac4       $pdata$_ctrlfp             000000018003fac4     libucrt:fpctrl.obj
 0004:00001ad0       $pdata$_set_statfp         000000018003fad0     libucrt:fpctrl.obj
 0004:00001adc       $pdata$_statfp             000000018003fadc     libucrt:fpctrl.obj
 0004:00001ae8       $pdata$?__c16rtomb_utf8@__crt_mbstring@@YA_KPEAD_SPEAU_Mbstatet@@@Z 000000018003fae8     libucrt:c16rtomb.obj
 0004:00001af4       $pdata$?__c32rtomb_utf8@__crt_mbstring@@YA_KPEAD_UPEAU_Mbstatet@@@Z 000000018003faf4     libucrt:c32rtomb.obj
 0004:00001b00       $pdata$?DloadAcquireSectionWriteAccess@@YAXXZ 000000018003fb00     DelayImp:delayhlp.obj
 0004:00001b0c       $pdata$?DloadGetSRWLockFunctionPointers@@YAEXZ 000000018003fb0c     DelayImp:delayhlp.obj
 0004:00001b18       $pdata$?DloadMakePermanentImageCommit@@YAXPEAX_K@Z 000000018003fb18     DelayImp:delayhlp.obj
 0004:00001b24       $pdata$?DloadObtainSection@@YAPEAXPEAK0@Z 000000018003fb24     DelayImp:delayhlp.obj
 0004:00001b30       $pdata$?DloadProtectSection@@YAXKPEAK@Z 000000018003fb30     DelayImp:delayhlp.obj
 0004:00001b3c       $pdata$?DloadReleaseSectionWriteAccess@@YAXXZ 000000018003fb3c     DelayImp:delayhlp.obj
 0004:00001b48       $pdata$__delayLoadHelper2  000000018003fb48     DelayImp:delayhlp.obj
 0004:00001b54       $pdata$_IsNonwritableInCurrentImage 000000018003fb54     LIBCMT:pesect.obj
 0004:00001b60       $pdata$__GSHandlerCheck    000000018003fb60     LIBCMT:_gshandler_.obj
 0004:00001b6c       $pdata$__GSHandlerCheckCommon 000000018003fb6c     LIBCMT:_gshandler_.obj
 0004:00001b84       $pdata$__GSHandlerCheck_EH 000000018003fb84     LIBCMT:gshandlereh.obj
 0004:00001b90       $pdata$strrchr             000000018003fb90     libvcruntime:strrchr.obj
 0004:00001bb4       $pdata$?fin$0@?0??dllmain_crt_process_attach@@YAHQEAUHINSTANCE__@@QEAX@Z@4HA 000000018003fbb4     LIBCMT:dll_dllmain.obj
 0004:00001bc0       $pdata$?fin$0@?0??dllmain_crt_process_detach@@YAH_N@Z@4HA 000000018003fbc0     LIBCMT:dll_dllmain.obj
 0004:00001bcc       $pdata$?filt$0@?0??dllmain_dispatch@@YAHQEAUHINSTANCE__@@KQEAX@Z@4HA 000000018003fbcc     LIBCMT:dll_dllmain.obj
 0004:00001bd8       $pdata$__scrt_is_nonwritable_in_current_image$filt$0 000000018003fbd8     LIBCMT:utility.obj
 0004:00001be4       $pdata$__DestructExceptionObject$filt$0 000000018003fbe4     libvcruntime:ehhelpers.obj
 0004:00001bf0       $pdata$?filt$0@?0???$_CallSETranslator@V__FrameHandler3@@@@YAHPEAUEHExceptionRecord@@PEA_KPEAU_CONTEXT@@PEAU_xDISPATCHER_CONTEXT@@PEBU_s_FuncInfo@@K1@Z@4HA 000000018003fbf0     libvcruntime:risctrnsctrl.obj
 0004:00001bfc       $pdata$?filt$0@?0??CxxCallCatchBlock@__FrameHandler3@@SAPEAXPEAU_EXCEPTION_RECORD@@@Z@4HA 000000018003fbfc     libvcruntime:frame.obj
 0004:00001c08       $pdata$?fin$1@?0??CxxCallCatchBlock@__FrameHandler3@@SAPEAXPEAU_EXCEPTION_RECORD@@@Z@4HA 000000018003fc08     libvcruntime:frame.obj
 0004:00001c14       $pdata$?filt$0@?0??FrameUnwindToState@__FrameHandler3@@SAXPEA_KPEAU_xDISPATCHER_CONTEXT@@PEBU_s_FuncInfo@@H@Z@4HA 000000018003fc14     libvcruntime:frame.obj
 0004:00001c20       $pdata$?fin$1@?0??FrameUnwindToState@__FrameHandler3@@SAXPEA_KPEAU_xDISPATCHER_CONTEXT@@PEBU_s_FuncInfo@@H@Z@4HA 000000018003fc20     libvcruntime:frame.obj
 0004:00001c2c       $pdata$?fin$0@?0???$?RV<lambda_a62c933ada0517137acf5807a1eeac1f>@@AEAV<lambda_a31071773b9a94e445cbd5d04ef99106>@@V<lambda_56065050dbf3ada7e59a83db45153de3>@@@?$__crt_seh_guarded_call@H@@QEAAH$$QEAV<lambda_a62c933ada0517137acf5807a1eeac1f>@@AEAV<lambda_a31071773b9a94e445cbd5d04ef99106>@@$$QEAV<lambda_56065050dbf3ada7e59a83db45153de3>@@@Z@4HA 000000018003fc2c     libucrt:output.obj
 0004:00001c2c       $pdata$?fin$0@?0???$?RV<lambda_0d412022a4b28cc8a401ea49574e8ae6>@@AEAV<lambda_a775ed57af18ba8e4d5dc780aa9068fe>@@V<lambda_975a71a6baa488a08f4e15f6b0339b9e>@@@?$__crt_seh_guarded_call@H@@QEAAH$$QEAV<lambda_0d412022a4b28cc8a401ea49574e8ae6>@@AEAV<lambda_a775ed57af18ba8e4d5dc780aa9068fe>@@$$QEAV<lambda_975a71a6baa488a08f4e15f6b0339b9e>@@@Z@4HA 000000018003fc2c     libucrt:output.obj
 0004:00001c2c       $pdata$?fin$0@?0???$?RV<lambda_84ec643ea9557e2f7dc01bb0e9624395>@@AEAV<lambda_ca71763b3c0644891230e4f79ea54fa6>@@V<lambda_439a761618c59b0600e24586724d733b>@@@?$__crt_seh_guarded_call@H@@QEAAH$$QEAV<lambda_84ec643ea9557e2f7dc01bb0e9624395>@@AEAV<lambda_ca71763b3c0644891230e4f79ea54fa6>@@$$QEAV<lambda_439a761618c59b0600e24586724d733b>@@@Z@4HA 000000018003fc2c     libucrt:setvbuf.obj
 0004:00001c2c       $pdata$?fin$0@?0???$?RV<lambda_c376a267cfb53b6959b3b692ec76b120>@@AEAV<lambda_9a32fed5bf61b6b509b2d3f6003082a1>@@V<lambda_572fbb9fa0ab338edf41edfd4b5fcc8d>@@@?$__crt_seh_guarded_call@H@@QEAAH$$QEAV<lambda_c376a267cfb53b6959b3b692ec76b120>@@AEAV<lambda_9a32fed5bf61b6b509b2d3f6003082a1>@@$$QEAV<lambda_572fbb9fa0ab338edf41edfd4b5fcc8d>@@@Z@4HA 000000018003fc2c     libucrt:fflush.obj
 0004:00001c2c       $pdata$?fin$0@?0???$?RV<lambda_842d9ff0dc9ef11c61343bbaebe7f885>@@AEAV<lambda_c5860995281e5c4ce005b3de8f5874ee>@@V<lambda_d90129c13df834fdcbf8d2b88dafcf2d>@@@?$__crt_seh_guarded_call@X@@QEAAX$$QEAV<lambda_842d9ff0dc9ef11c61343bbaebe7f885>@@AEAV<lambda_c5860995281e5c4ce005b3de8f5874ee>@@$$QEAV<lambda_d90129c13df834fdcbf8d2b88dafcf2d>@@@Z@4HA 000000018003fc2c     libucrt:fflush.obj
 0004:00001c38       $pdata$_query_new_handler$fin$0 000000018003fc38     libucrt:new_handler.obj
 0004:00001c44       $pdata$?fin$0@?0???$?RV<lambda_0ae27a3a962d80f24befdcbee591983d>@@AEAV<lambda_8d0ee55de4b1038c4002e0adecdf1839>@@V<lambda_dc504788e8f1664fe9b84e20bfb512f2>@@@?$__crt_seh_guarded_call@X@@QEAAX$$QEAV<lambda_0ae27a3a962d80f24befdcbee591983d>@@AEAV<lambda_8d0ee55de4b1038c4002e0adecdf1839>@@$$QEAV<lambda_dc504788e8f1664fe9b84e20bfb512f2>@@@Z@4HA 000000018003fc44     libucrt:per_thread_data.obj
 0004:00001c44       $pdata$?fin$0@?0???$?RV<lambda_450d765d439847d4c735a33c368b5fc0>@@AEAV<lambda_44731a7d0e6d81c3e6aa82d741081786>@@V<lambda_601a2a7da3b7a96e9554ac7215c4b07c>@@@?$__crt_seh_guarded_call@P6AXH@Z@@QEAAP6AXH@Z$$QEAV<lambda_450d765d439847d4c735a33c368b5fc0>@@AEAV<lambda_44731a7d0e6d81c3e6aa82d741081786>@@$$QEAV<lambda_601a2a7da3b7a96e9554ac7215c4b07c>@@@Z@4HA 000000018003fc44     libucrt:signal.obj
 0004:00001c44       $pdata$?fin$0@?0???$?RV<lambda_aa87e3671a710a21b5dc78c0bdf72e11>@@AEAV<lambda_92619d2358a28f41a33ba319515a20b9>@@V<lambda_6992ecaafeb10aed2b74cb1fae11a551>@@@?$__crt_seh_guarded_call@X@@QEAAX$$QEAV<lambda_aa87e3671a710a21b5dc78c0bdf72e11>@@AEAV<lambda_92619d2358a28f41a33ba319515a20b9>@@$$QEAV<lambda_6992ecaafeb10aed2b74cb1fae11a551>@@@Z@4HA 000000018003fc44     libucrt:per_thread_data.obj
 0004:00001c44       $pdata$?fin$0@?0???$?RV<lambda_f2e299630e499de9f9a165e60fcd3db5>@@AEAV<lambda_2ae9d31cdba2644fcbeaf08da7c24588>@@V<lambda_40d01ff24d0e7b3814fdbdcee8eab3c7>@@@?$__crt_seh_guarded_call@X@@QEAAX$$QEAV<lambda_f2e299630e499de9f9a165e60fcd3db5>@@AEAV<lambda_2ae9d31cdba2644fcbeaf08da7c24588>@@$$QEAV<lambda_40d01ff24d0e7b3814fdbdcee8eab3c7>@@@Z@4HA 000000018003fc44     libucrt:per_thread_data.obj
 0004:00001c44       $pdata$?fin$0@?0???$?RV<lambda_2d41944a1d46af3157314b8a01080d33>@@AEAV<lambda_8f455de75cd7d7f24b4096f044d8b9e6>@@V<lambda_aa500f224e6afead328df44964fe2772>@@@?$__crt_seh_guarded_call@X@@QEAAX$$QEAV<lambda_2d41944a1d46af3157314b8a01080d33>@@AEAV<lambda_8f455de75cd7d7f24b4096f044d8b9e6>@@$$QEAV<lambda_aa500f224e6afead328df44964fe2772>@@@Z@4HA 000000018003fc44     libucrt:per_thread_data.obj
 0004:00001c44       $pdata$?fin$0@?0???$?RV<lambda_d80eeec6fff315bfe5c115232f3240e3>@@AEAV<lambda_6e4b09c48022b2350581041d5f6b0c4c>@@V<lambda_2358e3775559c9db80273638284d5e45>@@@?$__crt_seh_guarded_call@X@@QEAAX$$QEAV<lambda_d80eeec6fff315bfe5c115232f3240e3>@@AEAV<lambda_6e4b09c48022b2350581041d5f6b0c4c>@@$$QEAV<lambda_2358e3775559c9db80273638284d5e45>@@@Z@4HA 000000018003fc44     libucrt:exit.obj
 0004:00001c44       $pdata$?fin$0@?0???$?RV<lambda_efdfa57d1f175319df784efa44bb7b81>@@AEAV<lambda_5f0a4c1567f8adc6734073e5d1e1b35c>@@V<lambda_2e8a7d3640ea6ccb4c2413664c2db6fd>@@@?$__crt_seh_guarded_call@X@@QEAAX$$QEAV<lambda_efdfa57d1f175319df784efa44bb7b81>@@AEAV<lambda_5f0a4c1567f8adc6734073e5d1e1b35c>@@$$QEAV<lambda_2e8a7d3640ea6ccb4c2413664c2db6fd>@@@Z@4HA 000000018003fc44     libucrt:mbctype.obj
 0004:00001c44       $pdata$?fin$0@?0???$?RV<lambda_7777bce6b2f8c936911f934f8298dc43>@@AEAV<lambda_f03950bc5685219e0bcd2087efbe011e>@@V<lambda_3883c3dff614d5e0c5f61bb1ac94921c>@@@?$__crt_seh_guarded_call@H@@QEAAH$$QEAV<lambda_7777bce6b2f8c936911f934f8298dc43>@@AEAV<lambda_f03950bc5685219e0bcd2087efbe011e>@@$$QEAV<lambda_3883c3dff614d5e0c5f61bb1ac94921c>@@@Z@4HA 000000018003fc44     libucrt:onexit.obj
 0004:00001c50       $pdata$?filt$0@?0???R<lambda_6e4b09c48022b2350581041d5f6b0c4c>@@QEBA@XZ@4HA 000000018003fc50     libucrt:exit.obj
 0004:00001c5c       $pdata$?fin$0@?0???$?RV<lambda_886d6c58226a84441f68b9f2b8217b83>@@AEAV<lambda_ab61a845afdef5b7c387490eaf3616ee>@@V<lambda_f7f22ab5edc0698d5f6905b0d3f44752>@@@?$__crt_seh_guarded_call@X@@QEAAX$$QEAV<lambda_886d6c58226a84441f68b9f2b8217b83>@@AEAV<lambda_ab61a845afdef5b7c387490eaf3616ee>@@$$QEAV<lambda_f7f22ab5edc0698d5f6905b0d3f44752>@@@Z@4HA 000000018003fc5c     libucrt:fflush.obj
 0004:00001c68       $pdata$raise$fin$0         000000018003fc68     libucrt:signal.obj
 0004:00001c74       $pdata$_fcloseall$fin$0    000000018003fc74     libucrt:closeall.obj
 0004:00001c80       $pdata$__acrt_initialize_lowio$fin$0 000000018003fc80     libucrt:ioinit.obj
 0004:00001c80       $pdata$__acrt_lowio_ensure_fh_exists$fin$0 000000018003fc80     libucrt:osfinfo.obj
 0004:00001c8c       $pdata$?fin$0@?0???$?RV<lambda_410d79af7f07d98d83a3f525b3859a53>@@AEAV<lambda_3e16ef9562a7dcce91392c22ab16ea36>@@V<lambda_38119f0e861e05405d8a144b9b982f0a>@@@?$__crt_seh_guarded_call@X@@QEAAX$$QEAV<lambda_410d79af7f07d98d83a3f525b3859a53>@@AEAV<lambda_3e16ef9562a7dcce91392c22ab16ea36>@@$$QEAV<lambda_38119f0e861e05405d8a144b9b982f0a>@@@Z@4HA 000000018003fc8c     libucrt:wsetlocale.obj
 0004:00001c98       $pdata$?fin$0@?0??update_thread_multibyte_data_internal@@YAPEAU__crt_multibyte_data@@QEAU__acrt_ptd@@QEAPEAU1@@Z@4HA 000000018003fc98     libucrt:mbctype.obj
 0004:00001ca4       $pdata$?fin$0@?0???$?RV<lambda_751a882b2c74d4b022dec766aa51a29a>@@AEAV<lambda_628dfdc04ba53c8bfc02c9951375f3f5>@@V<lambda_f6c7be5f7998530c34de24c7437d6b54>@@@?$__crt_seh_guarded_call@H@@QEAAH$$QEAV<lambda_751a882b2c74d4b022dec766aa51a29a>@@AEAV<lambda_628dfdc04ba53c8bfc02c9951375f3f5>@@$$QEAV<lambda_f6c7be5f7998530c34de24c7437d6b54>@@@Z@4HA 000000018003fca4     libucrt:close.obj
 0004:00001ca4       $pdata$?fin$0@?0???$?RV<lambda_a37b2b86f63e897a80ea819b0eb08c01>@@AEAV<lambda_38ce7e780aa69e748d6df282ebc68efe>@@V<lambda_99fb1378e971ab6e7edea83e3a7a83a2>@@@?$__crt_seh_guarded_call@H@@QEAAH$$QEAV<lambda_a37b2b86f63e897a80ea819b0eb08c01>@@AEAV<lambda_38ce7e780aa69e748d6df282ebc68efe>@@$$QEAV<lambda_99fb1378e971ab6e7edea83e3a7a83a2>@@@Z@4HA 000000018003fca4     libucrt:commit.obj
 0004:00001cb0       $pdata$_write$fin$0        000000018003fcb0     libucrt:write.obj
 0004:00001cb0       $pdata$?fin$0@?0???$common_lseek@_J@@YA_JH_JH@Z@4HA 000000018003fcb0     libucrt:lseek.obj
 0004:00001cbc       $pdata$fclose$fin$0        000000018003fcbc     libucrt:fclose.obj
 0004:00001cc8       $pdata$__acrt_update_thread_locale_data$fin$0 000000018003fcc8     libucrt:locale_refcounting.obj
 0004:00001cd4       $pdata$_ctrlfp$filt$0      000000018003fcd4     libucrt:fpctrl.obj
 0004:00001ce0       $pdata$_IsNonwritableInCurrentImage$filt$0 000000018003fce0     LIBCMT:pesect.obj
 0005:00000060       $R000000                   0000000180040060     * linker generated manifest res *

 Exports

  ordinal    name

        1    _register_secp256k1_
